(lp1
(dp2
S'date'
p3
S'Tue Oct 1, 2013'
p4
sS'visiting_team'
p5
S'Toronto'
p6
sS'home_team'
p7
S'Montr\xc3\xa9al'
p8
sS'time'
p9
S'7:00 PM ET'
p10
sa(dp11
g3
S'Tue Oct 1, 2013'
p12
sg5
S'Washington'
p13
sg7
S'Chicago'
p14
sg9
S'8:00 PM ET'
p15
sa(dp16
g3
S'Tue Oct 1, 2013'
p17
sg5
S'Winnipeg'
p18
sg7
S'Edmonton'
p19
sg9
S'10:00 PM ET'
p20
sa(dp21
g3
S'Wed Oct 2, 2013'
p22
sg5
S'Toronto'
p23
sg7
S'Philadelphia'
p24
sg9
S'7:30 PM ET'
p25
sa(dp26
g3
S'Wed Oct 2, 2013'
p27
sg5
S'Buffalo'
p28
sg7
S'Detroit'
p29
sg9
S'8:00 PM ET'
p30
sa(dp31
g3
S'Wed Oct 2, 2013'
p32
sg5
S'Anaheim'
p33
sg7
S'Colorado'
p34
sg9
S'9:30 PM ET'
p35
sa(dp36
g3
S'Thu Oct 3, 2013'
p37
sg5
S'Tampa Bay'
p38
sg7
S'Boston'
p39
sg9
S'7:00 PM ET'
p40
sa(dp41
g3
S'Thu Oct 3, 2013'
p42
sg5
S'New Jersey'
p43
sg7
S'Pittsburgh'
p44
sg9
S'7:00 PM ET'
p45
sa(dp46
g3
S'Thu Oct 3, 2013'
p47
sg5
S'Calgary'
p48
sg7
S'Washington'
p49
sg9
S'7:00 PM ET'
p50
sa(dp51
g3
S'Thu Oct 3, 2013'
p52
sg5
S'Nashville'
p53
sg7
S'St. Louis'
p54
sg9
S'8:00 PM ET'
p55
sa(dp56
g3
S'Thu Oct 3, 2013'
p57
sg5
S'Los Angeles'
p58
sg7
S'Minnesota'
p59
sg9
S'8:00 PM ET'
p60
sa(dp61
g3
S'Thu Oct 3, 2013'
p62
sg5
S'Florida'
p63
sg7
S'Dallas'
p64
sg9
S'8:30 PM ET'
p65
sa(dp66
g3
S'Thu Oct 3, 2013'
p67
sg5
S'NY Rangers'
p68
sg7
S'Phoenix'
p69
sg9
S'10:00 PM ET'
p70
sa(dp71
g3
S'Thu Oct 3, 2013'
p72
sg5
S'Vancouver'
p73
sg7
S'San Jose'
p74
sg9
S'10:00 PM ET'
p75
sa(dp76
g3
S'Fri Oct 4, 2013'
p77
sg5
S'Ottawa'
p78
sg7
S'Buffalo'
p79
sg9
S'7:00 PM ET'
p80
sa(dp81
g3
S'Fri Oct 4, 2013'
p82
sg5
S'NY Islanders'
p83
sg7
S'New Jersey'
p84
sg9
S'7:00 PM ET'
p85
sa(dp86
g3
S'Fri Oct 4, 2013'
p87
sg5
S'Detroit'
p88
sg7
S'Carolina'
p89
sg9
S'7:00 PM ET'
p90
sa(dp91
g3
S'Fri Oct 4, 2013'
p92
sg5
S'Calgary'
p93
sg7
S'Columbus'
p94
sg9
S'7:00 PM ET'
p95
sa(dp96
g3
S'Fri Oct 4, 2013'
p97
sg5
S'Los Angeles'
p98
sg7
S'Winnipeg'
p99
sg9
S'8:00 PM ET'
p100
sa(dp101
g3
S'Fri Oct 4, 2013'
p102
sg5
S'Nashville'
p103
sg7
S'Colorado'
p104
sg9
S'9:00 PM ET'
p105
sa(dp106
g3
S'Sat Oct 5, 2013'
p107
sg5
S'Detroit'
p108
sg7
S'Boston'
p109
sg9
S'7:00 PM ET'
p110
sa(dp111
g3
S'Sat Oct 5, 2013'
p112
sg5
S'Ottawa'
p113
sg7
S'Toronto'
p114
sg9
S'7:00 PM ET'
p115
sa(dp116
g3
S'Sat Oct 5, 2013'
p117
sg5
S'Philadelphia'
p118
sg7
S'Montr\xc3\xa9al'
p119
sg9
S'7:00 PM ET'
p120
sa(dp121
g3
S'Sat Oct 5, 2013'
p122
sg5
S'Columbus'
p123
sg7
S'NY Islanders'
p124
sg9
S'7:00 PM ET'
p125
sa(dp126
g3
S'Sat Oct 5, 2013'
p127
sg5
S'Buffalo'
p128
sg7
S'Pittsburgh'
p129
sg9
S'7:00 PM ET'
p130
sa(dp131
g3
S'Sat Oct 5, 2013'
p132
sg5
S'Tampa Bay'
p133
sg7
S'Chicago'
p134
sg9
S'8:00 PM ET'
p135
sa(dp136
g3
S'Sat Oct 5, 2013'
p137
sg5
S'Florida'
p138
sg7
S'St. Louis'
p139
sg9
S'8:00 PM ET'
p140
sa(dp141
g3
S'Sat Oct 5, 2013'
p142
sg5
S'Washington'
p143
sg7
S'Dallas'
p144
sg9
S'8:00 PM ET'
p145
sa(dp146
g3
S'Sat Oct 5, 2013'
p147
sg5
S'Anaheim'
p148
sg7
S'Minnesota'
p149
sg9
S'8:00 PM ET'
p150
sa(dp151
g3
S'Sat Oct 5, 2013'
p152
sg5
S'Edmonton'
p153
sg7
S'Vancouver'
p154
sg9
S'10:00 PM ET'
p155
sa(dp156
g3
S'Sat Oct 5, 2013'
p157
sg5
S'Phoenix'
p158
sg7
S'San Jose'
p159
sg9
S'10:30 PM ET'
p160
sa(dp161
g3
S'Sun Oct 6, 2013'
p162
sg5
S'Philadelphia'
p163
sg7
S'Carolina'
p164
sg9
S'5:00 PM ET'
p165
sa(dp166
g3
S'Sun Oct 6, 2013'
p167
sg5
S'Anaheim'
p168
sg7
S'Winnipeg'
p169
sg9
S'8:00 PM ET'
p170
sa(dp171
g3
S'Sun Oct 6, 2013'
p172
sg5
S'Vancouver'
p173
sg7
S'Calgary'
p174
sg9
S'8:00 PM ET'
p175
sa(dp176
g3
S'Mon Oct 7, 2013'
p177
sg5
S'New Jersey'
p178
sg7
S'Edmonton'
p179
sg9
S'9:30 PM ET'
p180
sa(dp181
g3
S'Mon Oct 7, 2013'
p182
sg5
S'NY Rangers'
p183
sg7
S'Los Angeles'
p184
sg9
S'10:30 PM ET'
p185
sa(dp186
g3
S'Tue Oct 8, 2013'
p187
sg5
S'Colorado'
p188
sg7
S'Toronto'
p189
sg9
S'7:00 PM ET'
p190
sa(dp191
g3
S'Tue Oct 8, 2013'
p192
sg5
S'Phoenix'
p193
sg7
S'NY Islanders'
p194
sg9
S'7:00 PM ET'
p195
sa(dp196
g3
S'Tue Oct 8, 2013'
p197
sg5
S'Florida'
p198
sg7
S'Philadelphia'
p199
sg9
S'7:00 PM ET'
p200
sa(dp201
g3
S'Tue Oct 8, 2013'
p202
sg5
S'Carolina'
p203
sg7
S'Pittsburgh'
p204
sg9
S'7:00 PM ET'
p205
sa(dp206
g3
S'Tue Oct 8, 2013'
p207
sg5
S'Tampa Bay'
p208
sg7
S'Buffalo'
p209
sg9
S'7:30 PM ET'
p210
sa(dp211
g3
S'Tue Oct 8, 2013'
p212
sg5
S'Minnesota'
p213
sg7
S'Nashville'
p214
sg9
S'8:00 PM ET'
p215
sa(dp216
g3
S'Tue Oct 8, 2013'
p217
sg5
S'New Jersey'
p218
sg7
S'Vancouver'
p219
sg9
S'10:00 PM ET'
p220
sa(dp221
g3
S'Tue Oct 8, 2013'
p222
sg5
S'NY Rangers'
p223
sg7
S'San Jose'
p224
sg9
S'10:30 PM ET'
p225
sa(dp226
g3
S'Wed Oct 9, 2013'
p227
sg5
S'Chicago'
p228
sg7
S'St. Louis'
p229
sg9
S'8:00 PM ET'
p230
sa(dp231
g3
S'Wed Oct 9, 2013'
p232
sg5
S'Montr\xc3\xa9al'
p233
sg7
S'Calgary'
p234
sg9
S'8:00 PM ET'
p235
sa(dp236
g3
S'Wed Oct 9, 2013'
p237
sg5
S'Ottawa'
p238
sg7
S'Los Angeles'
p239
sg9
S'10:30 PM ET'
p240
sa(dp241
g3
S'Thu Oct 10, 2013'
p242
sg5
S'Colorado'
p243
sg7
S'Boston'
p244
sg9
S'7:00 PM ET'
p245
sa(dp246
g3
S'Thu Oct 10, 2013'
p247
sg5
S'Columbus'
p248
sg7
S'Buffalo'
p249
sg9
S'7:00 PM ET'
p250
sa(dp251
g3
S'Thu Oct 10, 2013'
p252
sg5
S'Carolina'
p253
sg7
S'Washington'
p254
sg9
S'7:00 PM ET'
p255
sa(dp256
g3
S'Thu Oct 10, 2013'
p257
sg5
S'Phoenix'
p258
sg7
S'Detroit'
p259
sg9
S'7:30 PM ET'
p260
sa(dp261
g3
S'Thu Oct 10, 2013'
p262
sg5
S'Florida'
p263
sg7
S'Tampa Bay'
p264
sg9
S'7:30 PM ET'
p265
sa(dp266
g3
S'Thu Oct 10, 2013'
p267
sg5
S'Toronto'
p268
sg7
S'Nashville'
p269
sg9
S'8:00 PM ET'
p270
sa(dp271
g3
S'Thu Oct 10, 2013'
p272
sg5
S'Winnipeg'
p273
sg7
S'Minnesota'
p274
sg9
S'8:00 PM ET'
p275
sa(dp276
g3
S'Thu Oct 10, 2013'
p277
sg5
S'Montr\xc3\xa9al'
p278
sg7
S'Edmonton'
p279
sg9
S'9:30 PM ET'
p280
sa(dp281
g3
S'Thu Oct 10, 2013'
p282
sg5
S'San Jose'
p283
sg7
S'Vancouver'
p284
sg9
S'10:00 PM ET'
p285
sa(dp286
g3
S'Thu Oct 10, 2013'
p287
sg5
S'NY Rangers'
p288
sg7
S'Anaheim'
p289
sg9
S'10:00 PM ET'
p290
sa(dp291
g3
S'Fri Oct 11, 2013'
p292
sg5
S'Phoenix'
p293
sg7
S'Philadelphia'
p294
sg9
S'7:00 PM ET'
p295
sa(dp296
g3
S'Fri Oct 11, 2013'
p297
sg5
S'Los Angeles'
p298
sg7
S'Carolina'
p299
sg9
S'7:00 PM ET'
p300
sa(dp301
g3
S'Fri Oct 11, 2013'
p302
sg5
S'Pittsburgh'
p303
sg7
S'Florida'
p304
sg9
S'7:30 PM ET'
p305
sa(dp306
g3
S'Fri Oct 11, 2013'
p307
sg5
S'NY Islanders'
p308
sg7
S'Chicago'
p309
sg9
S'8:00 PM ET'
p310
sa(dp311
g3
S'Fri Oct 11, 2013'
p312
sg5
S'Dallas'
p313
sg7
S'Winnipeg'
p314
sg9
S'8:00 PM ET'
p315
sa(dp316
g3
S'Fri Oct 11, 2013'
p317
sg5
S'New Jersey'
p318
sg7
S'Calgary'
p319
sg9
S'9:00 PM ET'
p320
sa(dp321
g3
S'Sat Oct 12, 2013'
p322
sg5
S'Boston'
p323
sg7
S'Columbus'
p324
sg9
S'2:00 PM ET'
p325
sa(dp326
g3
S'Sat Oct 12, 2013'
p327
sg5
S'Edmonton'
p328
sg7
S'Toronto'
p329
sg9
S'7:00 PM ET'
p330
sa(dp331
g3
S'Sat Oct 12, 2013'
p332
sg5
S'Philadelphia'
p333
sg7
S'Detroit'
p334
sg9
S'7:00 PM ET'
p335
sa(dp336
g3
S'Sat Oct 12, 2013'
p337
sg5
S'Pittsburgh'
p338
sg7
S'Tampa Bay'
p339
sg9
S'7:00 PM ET'
p340
sa(dp341
g3
S'Sat Oct 12, 2013'
p342
sg5
S'Colorado'
p343
sg7
S'Washington'
p344
sg9
S'7:00 PM ET'
p345
sa(dp346
g3
S'Sat Oct 12, 2013'
p347
sg5
S'Buffalo'
p348
sg7
S'Chicago'
p349
sg9
S'8:00 PM ET'
p350
sa(dp351
g3
S'Sat Oct 12, 2013'
p352
sg5
S'NY Rangers'
p353
sg7
S'St. Louis'
p354
sg9
S'8:00 PM ET'
p355
sa(dp356
g3
S'Sat Oct 12, 2013'
p357
sg5
S'NY Islanders'
p358
sg7
S'Nashville'
p359
sg9
S'8:00 PM ET'
p360
sa(dp361
g3
S'Sat Oct 12, 2013'
p362
sg5
S'Dallas'
p363
sg7
S'Minnesota'
p364
sg9
S'8:00 PM ET'
p365
sa(dp366
g3
S'Sat Oct 12, 2013'
p367
sg5
S'Montr\xc3\xa9al'
p368
sg7
S'Vancouver'
p369
sg9
S'10:00 PM ET'
p370
sa(dp371
g3
S'Sat Oct 12, 2013'
p372
sg5
S'Ottawa'
p373
sg7
S'San Jose'
p374
sg9
S'10:00 PM ET'
p375
sa(dp376
g3
S'Sun Oct 13, 2013'
p377
sg5
S'Phoenix'
p378
sg7
S'Carolina'
p379
sg9
S'1:00 PM ET'
p380
sa(dp381
g3
S'Sun Oct 13, 2013'
p382
sg5
S'Los Angeles'
p383
sg7
S'Florida'
p384
sg9
S'3:00 PM ET'
p385
sa(dp386
g3
S'Sun Oct 13, 2013'
p387
sg5
S'New Jersey'
p388
sg7
S'Winnipeg'
p389
sg9
S'8:00 PM ET'
p390
sa(dp391
g3
S'Sun Oct 13, 2013'
p392
sg5
S'Ottawa'
p393
sg7
S'Anaheim'
p394
sg9
S'8:00 PM ET'
p395
sa(dp396
g3
S'Mon Oct 14, 2013'
p397
sg5
S'Detroit'
p398
sg7
S'Boston'
p399
sg9
S'1:00 PM ET'
p400
sa(dp401
g3
S'Mon Oct 14, 2013'
p402
sg5
S'Edmonton'
p403
sg7
S'Washington'
p404
sg9
S'7:00 PM ET'
p405
sa(dp406
g3
S'Mon Oct 14, 2013'
p407
sg5
S'Minnesota'
p408
sg7
S'Buffalo'
p409
sg9
S'7:30 PM ET'
p410
sa(dp411
g3
S'Tue Oct 15, 2013'
p412
sg5
S'Minnesota'
p413
sg7
S'Toronto'
p414
sg9
S'7:00 PM ET'
p415
sa(dp416
g3
S'Tue Oct 15, 2013'
p417
sg5
S'Buffalo'
p418
sg7
S'NY Islanders'
p419
sg9
S'7:00 PM ET'
p420
sa(dp421
g3
S'Tue Oct 15, 2013'
p422
sg5
S'Vancouver'
p423
sg7
S'Philadelphia'
p424
sg9
S'7:00 PM ET'
p425
sa(dp426
g3
S'Tue Oct 15, 2013'
p427
sg5
S'Edmonton'
p428
sg7
S'Pittsburgh'
p429
sg9
S'7:00 PM ET'
p430
sa(dp431
g3
S'Tue Oct 15, 2013'
p432
sg5
S'Chicago'
p433
sg7
S'Carolina'
p434
sg9
S'7:00 PM ET'
p435
sa(dp436
g3
S'Tue Oct 15, 2013'
p437
sg5
S'Columbus'
p438
sg7
S'Detroit'
p439
sg9
S'7:30 PM ET'
p440
sa(dp441
g3
S'Tue Oct 15, 2013'
p442
sg5
S'Los Angeles'
p443
sg7
S'Tampa Bay'
p444
sg9
S'7:30 PM ET'
p445
sa(dp446
g3
S'Tue Oct 15, 2013'
p447
sg5
S'San Jose'
p448
sg7
S'St. Louis'
p449
sg9
S'8:00 PM ET'
p450
sa(dp451
g3
S'Tue Oct 15, 2013'
p452
sg5
S'Florida'
p453
sg7
S'Nashville'
p454
sg9
S'8:00 PM ET'
p455
sa(dp456
g3
S'Tue Oct 15, 2013'
p457
sg5
S'Montr\xc3\xa9al'
p458
sg7
S'Winnipeg'
p459
sg9
S'8:00 PM ET'
p460
sa(dp461
g3
S'Tue Oct 15, 2013'
p462
sg5
S'Dallas'
p463
sg7
S'Colorado'
p464
sg9
S'9:00 PM ET'
p465
sa(dp466
g3
S'Tue Oct 15, 2013'
p467
sg5
S'Ottawa'
p468
sg7
S'Phoenix'
p469
sg9
S'10:00 PM ET'
p470
sa(dp471
g3
S'Wed Oct 16, 2013'
p472
sg5
S'NY Rangers'
p473
sg7
S'Washington'
p474
sg9
S'8:00 PM ET'
p475
sa(dp476
g3
S'Wed Oct 16, 2013'
p477
sg5
S'Calgary'
p478
sg7
S'Anaheim'
p479
sg9
S'10:00 PM ET'
p480
sa(dp481
g3
S'Thu Oct 17, 2013'
p482
sg5
S'Vancouver'
p483
sg7
S'Buffalo'
p484
sg9
S'7:00 PM ET'
p485
sa(dp486
g3
S'Thu Oct 17, 2013'
p487
sg5
S'Carolina'
p488
sg7
S'Toronto'
p489
sg9
S'7:00 PM ET'
p490
sa(dp491
g3
S'Thu Oct 17, 2013'
p492
sg5
S'Edmonton'
p493
sg7
S'NY Islanders'
p494
sg9
S'7:00 PM ET'
p495
sa(dp496
g3
S'Thu Oct 17, 2013'
p497
sg5
S'Pittsburgh'
p498
sg7
S'Philadelphia'
p499
sg9
S'7:00 PM ET'
p500
sa(dp501
g3
S'Thu Oct 17, 2013'
p502
sg5
S'Columbus'
p503
sg7
S'Montr\xc3\xa9al'
p504
sg9
S'7:30 PM ET'
p505
sa(dp506
g3
S'Thu Oct 17, 2013'
p507
sg5
S'New Jersey'
p508
sg7
S'Ottawa'
p509
sg9
S'7:30 PM ET'
p510
sa(dp511
g3
S'Thu Oct 17, 2013'
p512
sg5
S'Minnesota'
p513
sg7
S'Tampa Bay'
p514
sg9
S'7:30 PM ET'
p515
sa(dp516
g3
S'Thu Oct 17, 2013'
p517
sg5
S'Boston'
p518
sg7
S'Florida'
p519
sg9
S'7:30 PM ET'
p520
sa(dp521
g3
S'Thu Oct 17, 2013'
p522
sg5
S'St. Louis'
p523
sg7
S'Chicago'
p524
sg9
S'8:00 PM ET'
p525
sa(dp526
g3
S'Thu Oct 17, 2013'
p527
sg5
S'Los Angeles'
p528
sg7
S'Nashville'
p529
sg9
S'8:00 PM ET'
p530
sa(dp531
g3
S'Thu Oct 17, 2013'
p532
sg5
S'San Jose'
p533
sg7
S'Dallas'
p534
sg9
S'8:30 PM ET'
p535
sa(dp536
g3
S'Thu Oct 17, 2013'
p537
sg5
S'Detroit'
p538
sg7
S'Colorado'
p539
sg9
S'9:00 PM ET'
p540
sa(dp541
g3
S'Fri Oct 18, 2013'
p542
sg5
S'St. Louis'
p543
sg7
S'Winnipeg'
p544
sg9
S'8:00 PM ET'
p545
sa(dp546
g3
S'Fri Oct 18, 2013'
p547
sg5
S'Phoenix'
p548
sg7
S'Anaheim'
p549
sg9
S'10:00 PM ET'
p550
sa(dp551
g3
S'Sat Oct 19, 2013'
p552
sg5
S'Vancouver'
p553
sg7
S'Pittsburgh'
p554
sg9
S'1:00 PM ET'
p555
sa(dp556
g3
S'Sat Oct 19, 2013'
p557
sg5
S'Edmonton'
p558
sg7
S'Ottawa'
p559
sg9
S'2:00 PM ET'
p560
sa(dp561
g3
S'Sat Oct 19, 2013'
p562
sg5
S'Colorado'
p563
sg7
S'Buffalo'
p564
sg9
S'7:00 PM ET'
p565
sa(dp566
g3
S'Sat Oct 19, 2013'
p567
sg5
S'Nashville'
p568
sg7
S'Montr\xc3\xa9al'
p569
sg9
S'7:00 PM ET'
p570
sa(dp571
g3
S'Sat Oct 19, 2013'
p572
sg5
S'Boston'
p573
sg7
S'Tampa Bay'
p574
sg9
S'7:00 PM ET'
p575
sa(dp576
g3
S'Sat Oct 19, 2013'
p577
sg5
S'Minnesota'
p578
sg7
S'Florida'
p579
sg9
S'7:00 PM ET'
p580
sa(dp581
g3
S'Sat Oct 19, 2013'
p582
sg5
S'NY Rangers'
p583
sg7
S'New Jersey'
p584
sg9
S'7:00 PM ET'
p585
sa(dp586
g3
S'Sat Oct 19, 2013'
p587
sg5
S'Carolina'
p588
sg7
S'NY Islanders'
p589
sg9
S'7:00 PM ET'
p590
sa(dp591
g3
S'Sat Oct 19, 2013'
p592
sg5
S'Columbus'
p593
sg7
S'Washington'
p594
sg9
S'7:00 PM ET'
p595
sa(dp596
g3
S'Sat Oct 19, 2013'
p597
sg5
S'Toronto'
p598
sg7
S'Chicago'
p599
sg9
S'7:00 PM ET'
p600
sa(dp601
g3
S'Sat Oct 19, 2013'
p602
sg5
S'Detroit'
p603
sg7
S'Phoenix'
p604
sg9
S'9:00 PM ET'
p605
sa(dp606
g3
S'Sat Oct 19, 2013'
p607
sg5
S'Calgary'
p608
sg7
S'San Jose'
p609
sg9
S'10:00 PM ET'
p610
sa(dp611
g3
S'Sat Oct 19, 2013'
p612
sg5
S'Dallas'
p613
sg7
S'Los Angeles'
p614
sg9
S'10:30 PM ET'
p615
sa(dp616
g3
S'Sun Oct 20, 2013'
p617
sg5
S'Vancouver'
p618
sg7
S'Columbus'
p619
sg9
S'6:00 PM ET'
p620
sa(dp621
g3
S'Sun Oct 20, 2013'
p622
sg5
S'Nashville'
p623
sg7
S'Winnipeg'
p624
sg9
S'8:00 PM ET'
p625
sa(dp626
g3
S'Sun Oct 20, 2013'
p627
sg5
S'Dallas'
p628
sg7
S'Anaheim'
p629
sg9
S'8:00 PM ET'
p630
sa(dp631
g3
S'Mon Oct 21, 2013'
p632
sg5
S'San Jose'
p633
sg7
S'Detroit'
p634
sg9
S'7:30 PM ET'
p635
sa(dp636
g3
S'Mon Oct 21, 2013'
p637
sg5
S'Colorado'
p638
sg7
S'Pittsburgh'
p639
sg9
S'7:30 PM ET'
p640
sa(dp641
g3
S'Mon Oct 21, 2013'
p642
sg5
S'Calgary'
p643
sg7
S'Los Angeles'
p644
sg9
S'10:30 PM ET'
p645
sa(dp646
g3
S'Tue Oct 22, 2013'
p647
sg5
S'Anaheim'
p648
sg7
S'Toronto'
p649
sg9
S'7:00 PM ET'
p650
sa(dp651
g3
S'Tue Oct 22, 2013'
p652
sg5
S'Vancouver'
p653
sg7
S'NY Islanders'
p654
sg9
S'7:00 PM ET'
p655
sa(dp656
g3
S'Tue Oct 22, 2013'
p657
sg5
S'New Jersey'
p658
sg7
S'Columbus'
p659
sg9
S'7:00 PM ET'
p660
sa(dp661
g3
S'Tue Oct 22, 2013'
p662
sg5
S'Edmonton'
p663
sg7
S'Montr\xc3\xa9al'
p664
sg9
S'7:30 PM ET'
p665
sa(dp666
g3
S'Tue Oct 22, 2013'
p667
sg5
S'Chicago'
p668
sg7
S'Florida'
p669
sg9
S'7:30 PM ET'
p670
sa(dp671
g3
S'Tue Oct 22, 2013'
p672
sg5
S'Nashville'
p673
sg7
S'Minnesota'
p674
sg9
S'8:00 PM ET'
p675
sa(dp676
g3
S'Tue Oct 22, 2013'
p677
sg5
S'Washington'
p678
sg7
S'Winnipeg'
p679
sg9
S'8:00 PM ET'
p680
sa(dp681
g3
S'Tue Oct 22, 2013'
p682
sg5
S'Calgary'
p683
sg7
S'Phoenix'
p684
sg9
S'10:00 PM ET'
p685
sa(dp686
g3
S'Wed Oct 23, 2013'
p687
sg5
S'Ottawa'
p688
sg7
S'Detroit'
p689
sg9
S'7:30 PM ET'
p690
sa(dp691
g3
S'Wed Oct 23, 2013'
p692
sg5
S'Boston'
p693
sg7
S'Buffalo'
p694
sg9
S'8:00 PM ET'
p695
sa(dp696
g3
S'Thu Oct 24, 2013'
p697
sg5
S'San Jose'
p698
sg7
S'Boston'
p699
sg9
S'7:00 PM ET'
p700
sa(dp701
g3
S'Thu Oct 24, 2013'
p702
sg5
S'Vancouver'
p703
sg7
S'New Jersey'
p704
sg9
S'7:00 PM ET'
p705
sa(dp706
g3
S'Thu Oct 24, 2013'
p707
sg5
S'NY Rangers'
p708
sg7
S'Philadelphia'
p709
sg9
S'7:00 PM ET'
p710
sa(dp711
g3
S'Thu Oct 24, 2013'
p712
sg5
S'Anaheim'
p713
sg7
S'Montr\xc3\xa9al'
p714
sg9
S'7:30 PM ET'
p715
sa(dp716
g3
S'Thu Oct 24, 2013'
p717
sg5
S'Chicago'
p718
sg7
S'Tampa Bay'
p719
sg9
S'7:30 PM ET'
p720
sa(dp721
g3
S'Thu Oct 24, 2013'
p722
sg5
S'Winnipeg'
p723
sg7
S'Nashville'
p724
sg9
S'8:00 PM ET'
p725
sa(dp726
g3
S'Thu Oct 24, 2013'
p727
sg5
S'Carolina'
p728
sg7
S'Minnesota'
p729
sg9
S'8:00 PM ET'
p730
sa(dp731
g3
S'Thu Oct 24, 2013'
p732
sg5
S'Calgary'
p733
sg7
S'Dallas'
p734
sg9
S'8:30 PM ET'
p735
sa(dp736
g3
S'Thu Oct 24, 2013'
p737
sg5
S'Washington'
p738
sg7
S'Edmonton'
p739
sg9
S'9:30 PM ET'
p740
sa(dp741
g3
S'Thu Oct 24, 2013'
p742
sg5
S'Phoenix'
p743
sg7
S'Los Angeles'
p744
sg9
S'10:30 PM ET'
p745
sa(dp746
g3
S'Fri Oct 25, 2013'
p747
sg5
S'NY Islanders'
p748
sg7
S'Pittsburgh'
p749
sg9
S'7:00 PM ET'
p750
sa(dp751
g3
S'Fri Oct 25, 2013'
p752
sg5
S'Toronto'
p753
sg7
S'Columbus'
p754
sg9
S'7:00 PM ET'
p755
sa(dp756
g3
S'Fri Oct 25, 2013'
p757
sg5
S'Anaheim'
p758
sg7
S'Ottawa'
p759
sg9
S'7:30 PM ET'
p760
sa(dp761
g3
S'Fri Oct 25, 2013'
p762
sg5
S'Buffalo'
p763
sg7
S'Florida'
p764
sg9
S'7:30 PM ET'
p765
sa(dp766
g3
S'Fri Oct 25, 2013'
p767
sg5
S'Vancouver'
p768
sg7
S'St. Louis'
p769
sg9
S'8:00 PM ET'
p770
sa(dp771
g3
S'Fri Oct 25, 2013'
p772
sg5
S'Carolina'
p773
sg7
S'Colorado'
p774
sg9
S'9:00 PM ET'
p775
sa(dp776
g3
S'Sat Oct 26, 2013'
p777
sg5
S'Edmonton'
p778
sg7
S'Phoenix'
p779
sg9
S'4:00 PM ET'
p780
sa(dp781
g3
S'Sat Oct 26, 2013'
p782
sg5
S'New Jersey'
p783
sg7
S'Boston'
p784
sg9
S'7:00 PM ET'
p785
sa(dp786
g3
S'Sat Oct 26, 2013'
p787
sg5
S'Pittsburgh'
p788
sg7
S'Toronto'
p789
sg9
S'7:00 PM ET'
p790
sa(dp791
g3
S'Sat Oct 26, 2013'
p792
sg5
S'San Jose'
p793
sg7
S'Montr\xc3\xa9al'
p794
sg9
S'7:00 PM ET'
p795
sa(dp796
g3
S'Sat Oct 26, 2013'
p797
sg5
S'NY Rangers'
p798
sg7
S'Detroit'
p799
sg9
S'7:00 PM ET'
p800
sa(dp801
g3
S'Sat Oct 26, 2013'
p802
sg5
S'Buffalo'
p803
sg7
S'Tampa Bay'
p804
sg9
S'7:00 PM ET'
p805
sa(dp806
g3
S'Sat Oct 26, 2013'
p807
sg5
S'Philadelphia'
p808
sg7
S'NY Islanders'
p809
sg9
S'7:00 PM ET'
p810
sa(dp811
g3
S'Sat Oct 26, 2013'
p812
sg5
S'Winnipeg'
p813
sg7
S'Dallas'
p814
sg9
S'7:00 PM ET'
p815
sa(dp816
g3
S'Sat Oct 26, 2013'
p817
sg5
S'Minnesota'
p818
sg7
S'Chicago'
p819
sg9
S'8:00 PM ET'
p820
sa(dp821
g3
S'Sat Oct 26, 2013'
p822
sg5
S'St. Louis'
p823
sg7
S'Nashville'
p824
sg9
S'8:00 PM ET'
p825
sa(dp826
g3
S'Sat Oct 26, 2013'
p827
sg5
S'Washington'
p828
sg7
S'Calgary'
p829
sg9
S'10:00 PM ET'
p830
sa(dp831
g3
S'Sun Oct 27, 2013'
p832
sg5
S'San Jose'
p833
sg7
S'Ottawa'
p834
sg9
S'5:00 PM ET'
p835
sa(dp836
g3
S'Sun Oct 27, 2013'
p837
sg5
S'Tampa Bay'
p838
sg7
S'Florida'
p839
sg9
S'5:00 PM ET'
p840
sa(dp841
g3
S'Sun Oct 27, 2013'
p842
sg5
S'Anaheim'
p843
sg7
S'Columbus'
p844
sg9
S'6:00 PM ET'
p845
sa(dp846
g3
S'Sun Oct 27, 2013'
p847
sg5
S'Winnipeg'
p848
sg7
S'Colorado'
p849
sg9
S'8:00 PM ET'
p850
sa(dp851
g3
S'Sun Oct 27, 2013'
p852
sg5
S'Edmonton'
p853
sg7
S'Los Angeles'
p854
sg9
S'9:00 PM ET'
p855
sa(dp856
g3
S'Mon Oct 28, 2013'
p857
sg5
S'Dallas'
p858
sg7
S'Buffalo'
p859
sg9
S'7:00 PM ET'
p860
sa(dp861
g3
S'Mon Oct 28, 2013'
p862
sg5
S'Pittsburgh'
p863
sg7
S'Carolina'
p864
sg9
S'7:00 PM ET'
p865
sa(dp866
g3
S'Mon Oct 28, 2013'
p867
sg5
S'Montr\xc3\xa9al'
p868
sg7
S'NY Rangers'
p869
sg9
S'7:30 PM ET'
p870
sa(dp871
g3
S'Mon Oct 28, 2013'
p872
sg5
S'Chicago'
p873
sg7
S'Minnesota'
p874
sg9
S'8:00 PM ET'
p875
sa(dp876
g3
S'Mon Oct 28, 2013'
p877
sg5
S'Washington'
p878
sg7
S'Vancouver'
p879
sg9
S'10:00 PM ET'
p880
sa(dp881
g3
S'Tue Oct 29, 2013'
p882
sg5
S'NY Rangers'
p883
sg7
S'NY Islanders'
p884
sg9
S'7:00 PM ET'
p885
sa(dp886
g3
S'Tue Oct 29, 2013'
p887
sg5
S'Anaheim'
p888
sg7
S'Philadelphia'
p889
sg9
S'7:00 PM ET'
p890
sa(dp891
g3
S'Tue Oct 29, 2013'
p892
sg5
S'Dallas'
p893
sg7
S'Montr\xc3\xa9al'
p894
sg9
S'7:00 PM ET'
p895
sa(dp896
g3
S'Tue Oct 29, 2013'
p897
sg5
S'Tampa Bay'
p898
sg7
S'New Jersey'
p899
sg9
S'7:30 PM ET'
p900
sa(dp901
g3
S'Tue Oct 29, 2013'
p902
sg5
S'Ottawa'
p903
sg7
S'Chicago'
p904
sg9
S'8:00 PM ET'
p905
sa(dp906
g3
S'Tue Oct 29, 2013'
p907
sg5
S'Winnipeg'
p908
sg7
S'St. Louis'
p909
sg9
S'8:00 PM ET'
p910
sa(dp911
g3
S'Tue Oct 29, 2013'
p912
sg5
S'Toronto'
p913
sg7
S'Edmonton'
p914
sg9
S'9:00 PM ET'
p915
sa(dp916
g3
S'Tue Oct 29, 2013'
p917
sg5
S'Los Angeles'
p918
sg7
S'Phoenix'
p919
sg9
S'10:00 PM ET'
p920
sa(dp921
g3
S'Wed Oct 30, 2013'
p922
sg5
S'Boston'
p923
sg7
S'Pittsburgh'
p924
sg9
S'8:00 PM ET'
p925
sa(dp926
g3
S'Wed Oct 30, 2013'
p927
sg5
S'Toronto'
p928
sg7
S'Calgary'
p929
sg9
S'8:00 PM ET'
p930
sa(dp931
g3
S'Wed Oct 30, 2013'
p932
sg5
S'Detroit'
p933
sg7
S'Vancouver'
p934
sg9
S'10:30 PM ET'
p935
sa(dp936
g3
S'Wed Oct 30, 2013'
p937
sg5
S'San Jose'
p938
sg7
S'Los Angeles'
p939
sg9
S'10:30 PM ET'
p940
sa(dp941
g3
S'Thu Oct 31, 2013'
p942
sg5
S'Anaheim'
p943
sg7
S'Boston'
p944
sg9
S'7:00 PM ET'
p945
sa(dp946
g3
S'Thu Oct 31, 2013'
p947
sg5
S'Buffalo'
p948
sg7
S'NY Rangers'
p949
sg9
S'7:00 PM ET'
p950
sa(dp951
g3
S'Thu Oct 31, 2013'
p952
sg5
S'Nashville'
p953
sg7
S'Phoenix'
p954
sg9
S'10:00 PM ET'
p955
sa(dp956
g3
S'Fri Nov 1, 2013'
p957
sg5
S'Washington'
p958
sg7
S'Philadelphia'
p959
sg9
S'7:00 PM ET'
p960
sa(dp961
g3
S'Fri Nov 1, 2013'
p962
sg5
S'Columbus'
p963
sg7
S'Pittsburgh'
p964
sg9
S'7:00 PM ET'
p965
sa(dp966
g3
S'Fri Nov 1, 2013'
p967
sg5
S'Tampa Bay'
p968
sg7
S'Carolina'
p969
sg9
S'7:00 PM ET'
p970
sa(dp971
g3
S'Fri Nov 1, 2013'
p972
sg5
S'NY Islanders'
p973
sg7
S'Ottawa'
p974
sg9
S'7:30 PM ET'
p975
sa(dp976
g3
S'Fri Nov 1, 2013'
p977
sg5
S'St. Louis'
p978
sg7
S'Florida'
p979
sg9
S'7:30 PM ET'
p980
sa(dp981
g3
S'Fri Nov 1, 2013'
p982
sg5
S'Montr\xc3\xa9al'
p983
sg7
S'Minnesota'
p984
sg9
S'8:00 PM ET'
p985
sa(dp986
g3
S'Fri Nov 1, 2013'
p987
sg5
S'Colorado'
p988
sg7
S'Dallas'
p989
sg9
S'8:30 PM ET'
p990
sa(dp991
g3
S'Fri Nov 1, 2013'
p992
sg5
S'Detroit'
p993
sg7
S'Calgary'
p994
sg9
S'9:00 PM ET'
p995
sa(dp996
g3
S'Sat Nov 2, 2013'
p997
sg5
S'Chicago'
p998
sg7
S'Winnipeg'
p999
sg9
S'3:00 PM ET'
p1000
sa(dp1001
g3
S'Sat Nov 2, 2013'
p1002
sg5
S'Anaheim'
p1003
sg7
S'Buffalo'
p1004
sg9
S'7:00 PM ET'
p1005
sa(dp1006
g3
S'Sat Nov 2, 2013'
p1007
sg5
S'St. Louis'
p1008
sg7
S'Tampa Bay'
p1009
sg9
S'7:00 PM ET'
p1010
sa(dp1011
g3
S'Sat Nov 2, 2013'
p1012
sg5
S'Philadelphia'
p1013
sg7
S'New Jersey'
p1014
sg9
S'7:00 PM ET'
p1015
sa(dp1016
g3
S'Sat Nov 2, 2013'
p1017
sg5
S'Boston'
p1018
sg7
S'NY Islanders'
p1019
sg9
S'7:00 PM ET'
p1020
sa(dp1021
g3
S'Sat Nov 2, 2013'
p1022
sg5
S'Carolina'
p1023
sg7
S'NY Rangers'
p1024
sg9
S'7:00 PM ET'
p1025
sa(dp1026
g3
S'Sat Nov 2, 2013'
p1027
sg5
S'Florida'
p1028
sg7
S'Washington'
p1029
sg9
S'7:00 PM ET'
p1030
sa(dp1031
g3
S'Sat Nov 2, 2013'
p1032
sg5
S'Pittsburgh'
p1033
sg7
S'Columbus'
p1034
sg9
S'7:00 PM ET'
p1035
sa(dp1036
g3
S'Sat Nov 2, 2013'
p1037
sg5
S'Toronto'
p1038
sg7
S'Vancouver'
p1039
sg9
S'7:00 PM ET'
p1040
sa(dp1041
g3
S'Sat Nov 2, 2013'
p1042
sg5
S'Montr\xc3\xa9al'
p1043
sg7
S'Colorado'
p1044
sg9
S'10:00 PM ET'
p1045
sa(dp1046
g3
S'Sat Nov 2, 2013'
p1047
sg5
S'Detroit'
p1048
sg7
S'Edmonton'
p1049
sg9
S'10:00 PM ET'
p1050
sa(dp1051
g3
S'Sat Nov 2, 2013'
p1052
sg5
S'Nashville'
p1053
sg7
S'Los Angeles'
p1054
sg9
S'10:30 PM ET'
p1055
sa(dp1056
g3
S'Sat Nov 2, 2013'
p1057
sg5
S'Phoenix'
p1058
sg7
S'San Jose'
p1059
sg9
S'10:30 PM ET'
p1060
sa(dp1061
g3
S'Sun Nov 3, 2013'
p1062
sg5
S'Dallas'
p1063
sg7
S'Ottawa'
p1064
sg9
S'1:00 PM ET'
p1065
sa(dp1066
g3
S'Sun Nov 3, 2013'
p1067
sg5
S'Calgary'
p1068
sg7
S'Chicago'
p1069
sg9
S'7:30 PM ET'
p1070
sa(dp1071
g3
S'Sun Nov 3, 2013'
p1072
sg5
S'New Jersey'
p1073
sg7
S'Minnesota'
p1074
sg9
S'8:00 PM ET'
p1075
sa(dp1076
g3
S'Mon Nov 4, 2013'
p1077
sg5
S'Anaheim'
p1078
sg7
S'NY Rangers'
p1079
sg9
S'7:30 PM ET'
p1080
sa(dp1081
g3
S'Mon Nov 4, 2013'
p1082
sg5
S'Detroit'
p1083
sg7
S'Winnipeg'
p1084
sg9
S'8:00 PM ET'
p1085
sa(dp1086
g3
S'Tue Nov 5, 2013'
p1087
sg5
S'Dallas'
p1088
sg7
S'Boston'
p1089
sg9
S'7:00 PM ET'
p1090
sa(dp1091
g3
S'Tue Nov 5, 2013'
p1092
sg5
S'NY Islanders'
p1093
sg7
S'Washington'
p1094
sg9
S'7:00 PM ET'
p1095
sa(dp1096
g3
S'Tue Nov 5, 2013'
p1097
sg5
S'Ottawa'
p1098
sg7
S'Columbus'
p1099
sg9
S'7:00 PM ET'
p1100
sa(dp1101
g3
S'Tue Nov 5, 2013'
p1102
sg5
S'St. Louis'
p1103
sg7
S'Montr\xc3\xa9al'
p1104
sg9
S'7:30 PM ET'
p1105
sa(dp1106
g3
S'Tue Nov 5, 2013'
p1107
sg5
S'Edmonton'
p1108
sg7
S'Florida'
p1109
sg9
S'7:30 PM ET'
p1110
sa(dp1111
g3
S'Tue Nov 5, 2013'
p1112
sg5
S'Philadelphia'
p1113
sg7
S'Carolina'
p1114
sg9
S'7:30 PM ET'
p1115
sa(dp1116
g3
S'Tue Nov 5, 2013'
p1117
sg5
S'Calgary'
p1118
sg7
S'Minnesota'
p1119
sg9
S'8:00 PM ET'
p1120
sa(dp1121
g3
S'Tue Nov 5, 2013'
p1122
sg5
S'Vancouver'
p1123
sg7
S'Phoenix'
p1124
sg9
S'9:00 PM ET'
p1125
sa(dp1126
g3
S'Tue Nov 5, 2013'
p1127
sg5
S'Buffalo'
p1128
sg7
S'San Jose'
p1129
sg9
S'10:30 PM ET'
p1130
sa(dp1131
g3
S'Wed Nov 6, 2013'
p1132
sg5
S'Pittsburgh'
p1133
sg7
S'NY Rangers'
p1134
sg9
S'7:30 PM ET'
p1135
sa(dp1136
g3
S'Wed Nov 6, 2013'
p1137
sg5
S'Winnipeg'
p1138
sg7
S'Chicago'
p1139
sg9
S'8:00 PM ET'
p1140
sa(dp1141
g3
S'Wed Nov 6, 2013'
p1142
sg5
S'Nashville'
p1143
sg7
S'Colorado'
p1144
sg9
S'9:30 PM ET'
p1145
sa(dp1146
g3
S'Wed Nov 6, 2013'
p1147
sg5
S'Phoenix'
p1148
sg7
S'Anaheim'
p1149
sg9
S'10:00 PM ET'
p1150
sa(dp1151
g3
S'Thu Nov 7, 2013'
p1152
sg5
S'Florida'
p1153
sg7
S'Boston'
p1154
sg9
S'7:00 PM ET'
p1155
sa(dp1156
g3
S'Thu Nov 7, 2013'
p1157
sg5
S'Montr\xc3\xa9al'
p1158
sg7
S'Ottawa'
p1159
sg9
S'7:00 PM ET'
p1160
sa(dp1161
g3
S'Thu Nov 7, 2013'
p1162
sg5
S'New Jersey'
p1163
sg7
S'Philadelphia'
p1164
sg9
S'7:00 PM ET'
p1165
sa(dp1166
g3
S'Thu Nov 7, 2013'
p1167
sg5
S'Minnesota'
p1168
sg7
S'Washington'
p1169
sg9
S'7:00 PM ET'
p1170
sa(dp1171
g3
S'Thu Nov 7, 2013'
p1172
sg5
S'NY Islanders'
p1173
sg7
S'Carolina'
p1174
sg9
S'7:00 PM ET'
p1175
sa(dp1176
g3
S'Thu Nov 7, 2013'
p1177
sg5
S'NY Rangers'
p1178
sg7
S'Columbus'
p1179
sg9
S'7:00 PM ET'
p1180
sa(dp1181
g3
S'Thu Nov 7, 2013'
p1182
sg5
S'Dallas'
p1183
sg7
S'Detroit'
p1184
sg9
S'7:30 PM ET'
p1185
sa(dp1186
g3
S'Thu Nov 7, 2013'
p1187
sg5
S'Edmonton'
p1188
sg7
S'Tampa Bay'
p1189
sg9
S'7:30 PM ET'
p1190
sa(dp1191
g3
S'Thu Nov 7, 2013'
p1192
sg5
S'Calgary'
p1193
sg7
S'St. Louis'
p1194
sg9
S'8:00 PM ET'
p1195
sa(dp1196
g3
S'Thu Nov 7, 2013'
p1197
sg5
S'Buffalo'
p1198
sg7
S'Los Angeles'
p1199
sg9
S'10:30 PM ET'
p1200
sa(dp1201
g3
S'Thu Nov 7, 2013'
p1202
sg5
S'Vancouver'
p1203
sg7
S'San Jose'
p1204
sg9
S'10:30 PM ET'
p1205
sa(dp1206
g3
S'Fri Nov 8, 2013'
p1207
sg5
S'New Jersey'
p1208
sg7
S'Toronto'
p1209
sg9
S'7:30 PM ET'
p1210
sa(dp1211
g3
S'Fri Nov 8, 2013'
p1212
sg5
S'Nashville'
p1213
sg7
S'Winnipeg'
p1214
sg9
S'8:00 PM ET'
p1215
sa(dp1216
g3
S'Fri Nov 8, 2013'
p1217
sg5
S'Calgary'
p1218
sg7
S'Colorado'
p1219
sg9
S'9:00 PM ET'
p1220
sa(dp1221
g3
S'Fri Nov 8, 2013'
p1222
sg5
S'Buffalo'
p1223
sg7
S'Anaheim'
p1224
sg9
S'10:00 PM ET'
p1225
sa(dp1226
g3
S'Sat Nov 9, 2013'
p1227
sg5
S'Edmonton'
p1228
sg7
S'Philadelphia'
p1229
sg9
S'1:00 PM ET'
p1230
sa(dp1231
g3
S'Sat Nov 9, 2013'
p1232
sg5
S'Florida'
p1233
sg7
S'Ottawa'
p1234
sg9
S'2:00 PM ET'
p1235
sa(dp1236
g3
S'Sat Nov 9, 2013'
p1237
sg5
S'Toronto'
p1238
sg7
S'Boston'
p1239
sg9
S'7:00 PM ET'
p1240
sa(dp1241
g3
S'Sat Nov 9, 2013'
p1242
sg5
S'Tampa Bay'
p1243
sg7
S'Detroit'
p1244
sg9
S'7:00 PM ET'
p1245
sa(dp1246
g3
S'Sat Nov 9, 2013'
p1247
sg5
S'Minnesota'
p1248
sg7
S'Carolina'
p1249
sg9
S'7:00 PM ET'
p1250
sa(dp1251
g3
S'Sat Nov 9, 2013'
p1252
sg5
S'NY Islanders'
p1253
sg7
S'Columbus'
p1254
sg9
S'7:00 PM ET'
p1255
sa(dp1256
g3
S'Sat Nov 9, 2013'
p1257
sg5
S'Pittsburgh'
p1258
sg7
S'St. Louis'
p1259
sg9
S'8:00 PM ET'
p1260
sa(dp1261
g3
S'Sat Nov 9, 2013'
p1262
sg5
S'Chicago'
p1263
sg7
S'Dallas'
p1264
sg9
S'8:00 PM ET'
p1265
sa(dp1266
g3
S'Sat Nov 9, 2013'
p1267
sg5
S'Washington'
p1268
sg7
S'Phoenix'
p1269
sg9
S'8:00 PM ET'
p1270
sa(dp1271
g3
S'Sat Nov 9, 2013'
p1272
sg5
S'Vancouver'
p1273
sg7
S'Los Angeles'
p1274
sg9
S'10:00 PM ET'
p1275
sa(dp1276
g3
S'Sun Nov 10, 2013'
p1277
sg5
S'NY Islanders'
p1278
sg7
S'Montr\xc3\xa9al'
p1279
sg9
S'6:00 PM ET'
p1280
sa(dp1281
g3
S'Sun Nov 10, 2013'
p1282
sg5
S'Nashville'
p1283
sg7
S'New Jersey'
p1284
sg9
S'7:00 PM ET'
p1285
sa(dp1286
g3
S'Sun Nov 10, 2013'
p1287
sg5
S'Florida'
p1288
sg7
S'NY Rangers'
p1289
sg9
S'7:00 PM ET'
p1290
sa(dp1291
g3
S'Sun Nov 10, 2013'
p1292
sg5
S'Edmonton'
p1293
sg7
S'Chicago'
p1294
sg9
S'7:30 PM ET'
p1295
sa(dp1296
g3
S'Sun Nov 10, 2013'
p1297
sg5
S'San Jose'
p1298
sg7
S'Winnipeg'
p1299
sg9
S'8:00 PM ET'
p1300
sa(dp1301
g3
S'Sun Nov 10, 2013'
p1302
sg5
S'Washington'
p1303
sg7
S'Colorado'
p1304
sg9
S'8:00 PM ET'
p1305
sa(dp1306
g3
S'Sun Nov 10, 2013'
p1307
sg5
S'Vancouver'
p1308
sg7
S'Anaheim'
p1309
sg9
S'8:00 PM ET'
p1310
sa(dp1311
g3
S'Mon Nov 11, 2013'
p1312
sg5
S'Tampa Bay'
p1313
sg7
S'Boston'
p1314
sg9
S'1:00 PM ET'
p1315
sa(dp1316
g3
S'Tue Nov 12, 2013'
p1317
sg5
S'Los Angeles'
p1318
sg7
S'Buffalo'
p1319
sg9
S'7:00 PM ET'
p1320
sa(dp1321
g3
S'Tue Nov 12, 2013'
p1322
sg5
S'Nashville'
p1323
sg7
S'NY Islanders'
p1324
sg9
S'7:00 PM ET'
p1325
sa(dp1326
g3
S'Tue Nov 12, 2013'
p1327
sg5
S'New Jersey'
p1328
sg7
S'NY Rangers'
p1329
sg9
S'7:00 PM ET'
p1330
sa(dp1331
g3
S'Tue Nov 12, 2013'
p1332
sg5
S'Columbus'
p1333
sg7
S'Washington'
p1334
sg9
S'7:00 PM ET'
p1335
sa(dp1336
g3
S'Tue Nov 12, 2013'
p1337
sg5
S'Colorado'
p1338
sg7
S'Carolina'
p1339
sg9
S'7:00 PM ET'
p1340
sa(dp1341
g3
S'Tue Nov 12, 2013'
p1342
sg5
S'Tampa Bay'
p1343
sg7
S'Montr\xc3\xa9al'
p1344
sg9
S'7:30 PM ET'
p1345
sa(dp1346
g3
S'Tue Nov 12, 2013'
p1347
sg5
S'Philadelphia'
p1348
sg7
S'Ottawa'
p1349
sg9
S'7:30 PM ET'
p1350
sa(dp1351
g3
S'Tue Nov 12, 2013'
p1352
sg5
S'Winnipeg'
p1353
sg7
S'Detroit'
p1354
sg9
S'7:30 PM ET'
p1355
sa(dp1356
g3
S'Tue Nov 12, 2013'
p1357
sg5
S'Anaheim'
p1358
sg7
S'Florida'
p1359
sg9
S'7:30 PM ET'
p1360
sa(dp1361
g3
S'Tue Nov 12, 2013'
p1362
sg5
S'Phoenix'
p1363
sg7
S'St. Louis'
p1364
sg9
S'8:00 PM ET'
p1365
sa(dp1366
g3
S'Tue Nov 12, 2013'
p1367
sg5
S'San Jose'
p1368
sg7
S'Calgary'
p1369
sg9
S'9:00 PM ET'
p1370
sa(dp1371
g3
S'Wed Nov 13, 2013'
p1372
sg5
S'Toronto'
p1373
sg7
S'Minnesota'
p1374
sg9
S'7:30 PM ET'
p1375
sa(dp1376
g3
S'Wed Nov 13, 2013'
p1377
sg5
S'Philadelphia'
p1378
sg7
S'Pittsburgh'
p1379
sg9
S'8:00 PM ET'
p1380
sa(dp1381
g3
S'Wed Nov 13, 2013'
p1382
sg5
S'Dallas'
p1383
sg7
S'Edmonton'
p1384
sg9
S'10:00 PM ET'
p1385
sa(dp1386
g3
S'Thu Nov 14, 2013'
p1387
sg5
S'Columbus'
p1388
sg7
S'Boston'
p1389
sg9
S'7:00 PM ET'
p1390
sa(dp1391
g3
S'Thu Nov 14, 2013'
p1392
sg5
S'Los Angeles'
p1393
sg7
S'NY Islanders'
p1394
sg9
S'7:00 PM ET'
p1395
sa(dp1396
g3
S'Thu Nov 14, 2013'
p1397
sg5
S'Anaheim'
p1398
sg7
S'Tampa Bay'
p1399
sg9
S'7:30 PM ET'
p1400
sa(dp1401
g3
S'Thu Nov 14, 2013'
p1402
sg5
S'Phoenix'
p1403
sg7
S'Chicago'
p1404
sg9
S'8:00 PM ET'
p1405
sa(dp1406
g3
S'Thu Nov 14, 2013'
p1407
sg5
S'Colorado'
p1408
sg7
S'St. Louis'
p1409
sg9
S'8:00 PM ET'
p1410
sa(dp1411
g3
S'Thu Nov 14, 2013'
p1412
sg5
S'Dallas'
p1413
sg7
S'Calgary'
p1414
sg9
S'9:00 PM ET'
p1415
sa(dp1416
g3
S'Thu Nov 14, 2013'
p1417
sg5
S'San Jose'
p1418
sg7
S'Vancouver'
p1419
sg9
S'10:00 PM ET'
p1420
sa(dp1421
g3
S'Fri Nov 15, 2013'
p1422
sg5
S'Toronto'
p1423
sg7
S'Buffalo'
p1424
sg9
S'7:00 PM ET'
p1425
sa(dp1426
g3
S'Fri Nov 15, 2013'
p1427
sg5
S'Los Angeles'
p1428
sg7
S'New Jersey'
p1429
sg9
S'7:00 PM ET'
p1430
sa(dp1431
g3
S'Fri Nov 15, 2013'
p1432
sg5
S'Nashville'
p1433
sg7
S'Pittsburgh'
p1434
sg9
S'7:00 PM ET'
p1435
sa(dp1436
g3
S'Fri Nov 15, 2013'
p1437
sg5
S'Anaheim'
p1438
sg7
S'Carolina'
p1439
sg9
S'7:00 PM ET'
p1440
sa(dp1441
g3
S'Fri Nov 15, 2013'
p1442
sg5
S'Montr\xc3\xa9al'
p1443
sg7
S'Columbus'
p1444
sg9
S'7:00 PM ET'
p1445
sa(dp1446
g3
S'Fri Nov 15, 2013'
p1447
sg5
S'Boston'
p1448
sg7
S'Ottawa'
p1449
sg9
S'7:30 PM ET'
p1450
sa(dp1451
g3
S'Fri Nov 15, 2013'
p1452
sg5
S'Washington'
p1453
sg7
S'Detroit'
p1454
sg9
S'7:30 PM ET'
p1455
sa(dp1456
g3
S'Fri Nov 15, 2013'
p1457
sg5
S'Florida'
p1458
sg7
S'Minnesota'
p1459
sg9
S'8:00 PM ET'
p1460
sa(dp1461
g3
S'Fri Nov 15, 2013'
p1462
sg5
S'Philadelphia'
p1463
sg7
S'Winnipeg'
p1464
sg9
S'8:00 PM ET'
p1465
sa(dp1466
g3
S'Fri Nov 15, 2013'
p1467
sg5
S'San Jose'
p1468
sg7
S'Edmonton'
p1469
sg9
S'10:00 PM ET'
p1470
sa(dp1471
g3
S'Sat Nov 16, 2013'
p1472
sg5
S'Buffalo'
p1473
sg7
S'Toronto'
p1474
sg9
S'7:00 PM ET'
p1475
sa(dp1476
g3
S'Sat Nov 16, 2013'
p1477
sg5
S'NY Rangers'
p1478
sg7
S'Montr\xc3\xa9al'
p1479
sg9
S'7:00 PM ET'
p1480
sa(dp1481
g3
S'Sat Nov 16, 2013'
p1482
sg5
S'Pittsburgh'
p1483
sg7
S'New Jersey'
p1484
sg9
S'7:00 PM ET'
p1485
sa(dp1486
g3
S'Sat Nov 16, 2013'
p1487
sg5
S'Detroit'
p1488
sg7
S'NY Islanders'
p1489
sg9
S'7:00 PM ET'
p1490
sa(dp1491
g3
S'Sat Nov 16, 2013'
p1492
sg5
S'Carolina'
p1493
sg7
S'St. Louis'
p1494
sg9
S'8:00 PM ET'
p1495
sa(dp1496
g3
S'Sat Nov 16, 2013'
p1497
sg5
S'Chicago'
p1498
sg7
S'Nashville'
p1499
sg9
S'8:00 PM ET'
p1500
sa(dp1501
g3
S'Sat Nov 16, 2013'
p1502
sg5
S'Tampa Bay'
p1503
sg7
S'Phoenix'
p1504
sg9
S'8:00 PM ET'
p1505
sa(dp1506
g3
S'Sat Nov 16, 2013'
p1507
sg5
S'Florida'
p1508
sg7
S'Colorado'
p1509
sg9
S'9:00 PM ET'
p1510
sa(dp1511
g3
S'Sat Nov 16, 2013'
p1512
sg5
S'Edmonton'
p1513
sg7
S'Calgary'
p1514
sg9
S'10:00 PM ET'
p1515
sa(dp1516
g3
S'Sun Nov 17, 2013'
p1517
sg5
S'Columbus'
p1518
sg7
S'Ottawa'
p1519
sg9
S'1:00 PM ET'
p1520
sa(dp1521
g3
S'Sun Nov 17, 2013'
p1522
sg5
S'St. Louis'
p1523
sg7
S'Washington'
p1524
sg9
S'6:00 PM ET'
p1525
sa(dp1526
g3
S'Sun Nov 17, 2013'
p1527
sg5
S'Los Angeles'
p1528
sg7
S'NY Rangers'
p1529
sg9
S'7:00 PM ET'
p1530
sa(dp1531
g3
S'Sun Nov 17, 2013'
p1532
sg5
S'San Jose'
p1533
sg7
S'Chicago'
p1534
sg9
S'7:00 PM ET'
p1535
sa(dp1536
g3
S'Sun Nov 17, 2013'
p1537
sg5
S'Winnipeg'
p1538
sg7
S'Minnesota'
p1539
sg9
S'8:00 PM ET'
p1540
sa(dp1541
g3
S'Sun Nov 17, 2013'
p1542
sg5
S'Dallas'
p1543
sg7
S'Vancouver'
p1544
sg9
S'8:00 PM ET'
p1545
sa(dp1546
g3
S'Mon Nov 18, 2013'
p1547
sg5
S'Boston'
p1548
sg7
S'Carolina'
p1549
sg9
S'7:00 PM ET'
p1550
sa(dp1551
g3
S'Mon Nov 18, 2013'
p1552
sg5
S'Anaheim'
p1553
sg7
S'Pittsburgh'
p1554
sg9
S'7:30 PM ET'
p1555
sa(dp1556
g3
S'Mon Nov 18, 2013'
p1557
sg5
S'Calgary'
p1558
sg7
S'Winnipeg'
p1559
sg9
S'8:00 PM ET'
p1560
sa(dp1561
g3
S'Tue Nov 19, 2013'
p1562
sg5
S'St. Louis'
p1563
sg7
S'Buffalo'
p1564
sg9
S'7:00 PM ET'
p1565
sa(dp1566
g3
S'Tue Nov 19, 2013'
p1567
sg5
S'NY Islanders'
p1568
sg7
S'Toronto'
p1569
sg9
S'7:00 PM ET'
p1570
sa(dp1571
g3
S'Tue Nov 19, 2013'
p1572
sg5
S'Ottawa'
p1573
sg7
S'Philadelphia'
p1574
sg9
S'7:00 PM ET'
p1575
sa(dp1576
g3
S'Tue Nov 19, 2013'
p1577
sg5
S'Minnesota'
p1578
sg7
S'Montr\xc3\xa9al'
p1579
sg9
S'7:30 PM ET'
p1580
sa(dp1581
g3
S'Tue Nov 19, 2013'
p1582
sg5
S'Nashville'
p1583
sg7
S'Detroit'
p1584
sg9
S'7:30 PM ET'
p1585
sa(dp1586
g3
S'Tue Nov 19, 2013'
p1587
sg5
S'Boston'
p1588
sg7
S'NY Rangers'
p1589
sg9
S'7:30 PM ET'
p1590
sa(dp1591
g3
S'Tue Nov 19, 2013'
p1592
sg5
S'Chicago'
p1593
sg7
S'Colorado'
p1594
sg9
S'9:00 PM ET'
p1595
sa(dp1596
g3
S'Tue Nov 19, 2013'
p1597
sg5
S'Columbus'
p1598
sg7
S'Edmonton'
p1599
sg9
S'9:30 PM ET'
p1600
sa(dp1601
g3
S'Tue Nov 19, 2013'
p1602
sg5
S'Florida'
p1603
sg7
S'Vancouver'
p1604
sg9
S'10:00 PM ET'
p1605
sa(dp1606
g3
S'Tue Nov 19, 2013'
p1607
sg5
S'Tampa Bay'
p1608
sg7
S'Los Angeles'
p1609
sg9
S'10:30 PM ET'
p1610
sa(dp1611
g3
S'Wed Nov 20, 2013'
p1612
sg5
S'Minnesota'
p1613
sg7
S'Ottawa'
p1614
sg9
S'7:30 PM ET'
p1615
sa(dp1616
g3
S'Wed Nov 20, 2013'
p1617
sg5
S'Pittsburgh'
p1618
sg7
S'Washington'
p1619
sg9
S'8:00 PM ET'
p1620
sa(dp1621
g3
S'Wed Nov 20, 2013'
p1622
sg5
S'Columbus'
p1623
sg7
S'Calgary'
p1624
sg9
S'10:00 PM ET'
p1625
sa(dp1626
g3
S'Wed Nov 20, 2013'
p1627
sg5
S'New Jersey'
p1628
sg7
S'Anaheim'
p1629
sg9
S'10:00 PM ET'
p1630
sa(dp1631
g3
S'Thu Nov 21, 2013'
p1632
sg5
S'St. Louis'
p1633
sg7
S'Boston'
p1634
sg9
S'7:00 PM ET'
p1635
sa(dp1636
g3
S'Thu Nov 21, 2013'
p1637
sg5
S'Nashville'
p1638
sg7
S'Toronto'
p1639
sg9
S'7:00 PM ET'
p1640
sa(dp1641
g3
S'Thu Nov 21, 2013'
p1642
sg5
S'Buffalo'
p1643
sg7
S'Philadelphia'
p1644
sg9
S'7:00 PM ET'
p1645
sa(dp1646
g3
S'Thu Nov 21, 2013'
p1647
sg5
S'Carolina'
p1648
sg7
S'Detroit'
p1649
sg9
S'7:30 PM ET'
p1650
sa(dp1651
g3
S'Thu Nov 21, 2013'
p1652
sg5
S'Chicago'
p1653
sg7
S'Winnipeg'
p1654
sg9
S'8:00 PM ET'
p1655
sa(dp1656
g3
S'Thu Nov 21, 2013'
p1657
sg5
S'NY Rangers'
p1658
sg7
S'Dallas'
p1659
sg9
S'8:30 PM ET'
p1660
sa(dp1661
g3
S'Thu Nov 21, 2013'
p1662
sg5
S'Colorado'
p1663
sg7
S'Phoenix'
p1664
sg9
S'9:00 PM ET'
p1665
sa(dp1666
g3
S'Thu Nov 21, 2013'
p1667
sg5
S'Florida'
p1668
sg7
S'Edmonton'
p1669
sg9
S'9:30 PM ET'
p1670
sa(dp1671
g3
S'Thu Nov 21, 2013'
p1672
sg5
S'New Jersey'
p1673
sg7
S'Los Angeles'
p1674
sg9
S'10:30 PM ET'
p1675
sa(dp1676
g3
S'Thu Nov 21, 2013'
p1677
sg5
S'Tampa Bay'
p1678
sg7
S'San Jose'
p1679
sg9
S'10:30 PM ET'
p1680
sa(dp1681
g3
S'Fri Nov 22, 2013'
p1682
sg5
S'NY Islanders'
p1683
sg7
S'Pittsburgh'
p1684
sg9
S'7:00 PM ET'
p1685
sa(dp1686
g3
S'Fri Nov 22, 2013'
p1687
sg5
S'Montr\xc3\xa9al'
p1688
sg7
S'Washington'
p1689
sg9
S'7:00 PM ET'
p1690
sa(dp1691
g3
S'Fri Nov 22, 2013'
p1692
sg5
S'Florida'
p1693
sg7
S'Calgary'
p1694
sg9
S'9:00 PM ET'
p1695
sa(dp1696
g3
S'Fri Nov 22, 2013'
p1697
sg5
S'Columbus'
p1698
sg7
S'Vancouver'
p1699
sg9
S'10:00 PM ET'
p1700
sa(dp1701
g3
S'Fri Nov 22, 2013'
p1702
sg5
S'Tampa Bay'
p1703
sg7
S'Anaheim'
p1704
sg9
S'10:00 PM ET'
p1705
sa(dp1706
g3
S'Sat Nov 23, 2013'
p1707
sg5
S'Carolina'
p1708
sg7
S'Boston'
p1709
sg9
S'1:00 PM ET'
p1710
sa(dp1711
g3
S'Sat Nov 23, 2013'
p1712
sg5
S'Minnesota'
p1713
sg7
S'Winnipeg'
p1714
sg9
S'3:00 PM ET'
p1715
sa(dp1716
g3
S'Sat Nov 23, 2013'
p1717
sg5
S'Washington'
p1718
sg7
S'Toronto'
p1719
sg9
S'7:00 PM ET'
p1720
sa(dp1721
g3
S'Sat Nov 23, 2013'
p1722
sg5
S'Pittsburgh'
p1723
sg7
S'Montr\xc3\xa9al'
p1724
sg9
S'7:00 PM ET'
p1725
sa(dp1726
g3
S'Sat Nov 23, 2013'
p1727
sg5
S'Ottawa'
p1728
sg7
S'Detroit'
p1729
sg9
S'7:00 PM ET'
p1730
sa(dp1731
g3
S'Sat Nov 23, 2013'
p1732
sg5
S'NY Islanders'
p1733
sg7
S'Philadelphia'
p1734
sg9
S'7:00 PM ET'
p1735
sa(dp1736
g3
S'Sat Nov 23, 2013'
p1737
sg5
S'Dallas'
p1738
sg7
S'St. Louis'
p1739
sg9
S'8:00 PM ET'
p1740
sa(dp1741
g3
S'Sat Nov 23, 2013'
p1742
sg5
S'NY Rangers'
p1743
sg7
S'Nashville'
p1744
sg9
S'8:00 PM ET'
p1745
sa(dp1746
g3
S'Sat Nov 23, 2013'
p1747
sg5
S'Anaheim'
p1748
sg7
S'Phoenix'
p1749
sg9
S'8:00 PM ET'
p1750
sa(dp1751
g3
S'Sat Nov 23, 2013'
p1752
sg5
S'Chicago'
p1753
sg7
S'Vancouver'
p1754
sg9
S'10:00 PM ET'
p1755
sa(dp1756
g3
S'Sat Nov 23, 2013'
p1757
sg5
S'Colorado'
p1758
sg7
S'Los Angeles'
p1759
sg9
S'10:30 PM ET'
p1760
sa(dp1761
g3
S'Sat Nov 23, 2013'
p1762
sg5
S'New Jersey'
p1763
sg7
S'San Jose'
p1764
sg9
S'10:30 PM ET'
p1765
sa(dp1766
g3
S'Sun Nov 24, 2013'
p1767
sg5
S'Detroit'
p1768
sg7
S'Buffalo'
p1769
sg9
S'5:00 PM ET'
p1770
sa(dp1771
g3
S'Sun Nov 24, 2013'
p1772
sg5
S'Ottawa'
p1773
sg7
S'Carolina'
p1774
sg9
S'5:00 PM ET'
p1775
sa(dp1776
g3
S'Mon Nov 25, 2013'
p1777
sg5
S'Pittsburgh'
p1778
sg7
S'Boston'
p1779
sg9
S'7:00 PM ET'
p1780
sa(dp1781
g3
S'Mon Nov 25, 2013'
p1782
sg5
S'Columbus'
p1783
sg7
S'Toronto'
p1784
sg9
S'7:00 PM ET'
p1785
sa(dp1786
g3
S'Mon Nov 25, 2013'
p1787
sg5
S'Winnipeg'
p1788
sg7
S'New Jersey'
p1789
sg9
S'7:00 PM ET'
p1790
sa(dp1791
g3
S'Mon Nov 25, 2013'
p1792
sg5
S'NY Rangers'
p1793
sg7
S'Tampa Bay'
p1794
sg9
S'7:30 PM ET'
p1795
sa(dp1796
g3
S'Mon Nov 25, 2013'
p1797
sg5
S'Philadelphia'
p1798
sg7
S'Florida'
p1799
sg9
S'7:30 PM ET'
p1800
sa(dp1801
g3
S'Mon Nov 25, 2013'
p1802
sg5
S'Minnesota'
p1803
sg7
S'St. Louis'
p1804
sg9
S'8:00 PM ET'
p1805
sa(dp1806
g3
S'Mon Nov 25, 2013'
p1807
sg5
S'Phoenix'
p1808
sg7
S'Nashville'
p1809
sg9
S'8:00 PM ET'
p1810
sa(dp1811
g3
S'Mon Nov 25, 2013'
p1812
sg5
S'Chicago'
p1813
sg7
S'Edmonton'
p1814
sg9
S'9:30 PM ET'
p1815
sa(dp1816
g3
S'Mon Nov 25, 2013'
p1817
sg5
S'Los Angeles'
p1818
sg7
S'Vancouver'
p1819
sg9
S'10:00 PM ET'
p1820
sa(dp1821
g3
S'Tue Nov 26, 2013'
p1822
sg5
S'Anaheim'
p1823
sg7
S'Dallas'
p1824
sg9
S'8:00 PM ET'
p1825
sa(dp1826
g3
S'Wed Nov 27, 2013'
p1827
sg5
S'Montr\xc3\xa9al'
p1828
sg7
S'Buffalo'
p1829
sg9
S'7:00 PM ET'
p1830
sa(dp1831
g3
S'Wed Nov 27, 2013'
p1832
sg5
S'Carolina'
p1833
sg7
S'New Jersey'
p1834
sg9
S'7:00 PM ET'
p1835
sa(dp1836
g3
S'Wed Nov 27, 2013'
p1837
sg5
S'Winnipeg'
p1838
sg7
S'NY Islanders'
p1839
sg9
S'7:00 PM ET'
p1840
sa(dp1841
g3
S'Wed Nov 27, 2013'
p1842
sg5
S'Ottawa'
p1843
sg7
S'Washington'
p1844
sg9
S'7:00 PM ET'
p1845
sa(dp1846
g3
S'Wed Nov 27, 2013'
p1847
sg5
S'Nashville'
p1848
sg7
S'Columbus'
p1849
sg9
S'7:00 PM ET'
p1850
sa(dp1851
g3
S'Wed Nov 27, 2013'
p1852
sg5
S'Boston'
p1853
sg7
S'Detroit'
p1854
sg9
S'7:30 PM ET'
p1855
sa(dp1856
g3
S'Wed Nov 27, 2013'
p1857
sg5
S'Philadelphia'
p1858
sg7
S'Tampa Bay'
p1859
sg9
S'7:30 PM ET'
p1860
sa(dp1861
g3
S'Wed Nov 27, 2013'
p1862
sg5
S'NY Rangers'
p1863
sg7
S'Florida'
p1864
sg9
S'7:30 PM ET'
p1865
sa(dp1866
g3
S'Wed Nov 27, 2013'
p1867
sg5
S'Toronto'
p1868
sg7
S'Pittsburgh'
p1869
sg9
S'7:30 PM ET'
p1870
sa(dp1871
g3
S'Wed Nov 27, 2013'
p1872
sg5
S'Phoenix'
p1873
sg7
S'Minnesota'
p1874
sg9
S'8:00 PM ET'
p1875
sa(dp1876
g3
S'Wed Nov 27, 2013'
p1877
sg5
S'St. Louis'
p1878
sg7
S'Colorado'
p1879
sg9
S'9:00 PM ET'
p1880
sa(dp1881
g3
S'Wed Nov 27, 2013'
p1882
sg5
S'Chicago'
p1883
sg7
S'Calgary'
p1884
sg9
S'10:00 PM ET'
p1885
sa(dp1886
g3
S'Wed Nov 27, 2013'
p1887
sg5
S'Los Angeles'
p1888
sg7
S'San Jose'
p1889
sg9
S'10:30 PM ET'
p1890
sa(dp1891
g3
S'Thu Nov 28, 2013'
p1892
sg5
S'Vancouver'
p1893
sg7
S'Ottawa'
p1894
sg9
S'7:30 PM ET'
p1895
sa(dp1896
g3
S'Thu Nov 28, 2013'
p1897
sg5
S'Edmonton'
p1898
sg7
S'Nashville'
p1899
sg9
S'8:00 PM ET'
p1900
sa(dp1901
g3
S'Fri Nov 29, 2013'
p1902
sg5
S'Winnipeg'
p1903
sg7
S'Philadelphia'
p1904
sg9
S'11:30 AM ET'
p1905
sa(dp1906
g3
S'Fri Nov 29, 2013'
p1907
sg5
S'NY Rangers'
p1908
sg7
S'Boston'
p1909
sg9
S'1:00 PM ET'
p1910
sa(dp1911
g3
S'Fri Nov 29, 2013'
p1912
sg5
S'Pittsburgh'
p1913
sg7
S'Tampa Bay'
p1914
sg9
S'4:00 PM ET'
p1915
sa(dp1916
g3
S'Fri Nov 29, 2013'
p1917
sg5
S'Detroit'
p1918
sg7
S'NY Islanders'
p1919
sg9
S'4:00 PM ET'
p1920
sa(dp1921
g3
S'Fri Nov 29, 2013'
p1922
sg5
S'Calgary'
p1923
sg7
S'Anaheim'
p1924
sg9
S'4:00 PM ET'
p1925
sa(dp1926
g3
S'Fri Nov 29, 2013'
p1927
sg5
S'St. Louis'
p1928
sg7
S'San Jose'
p1929
sg9
S'4:00 PM ET'
p1930
sa(dp1931
g3
S'Fri Nov 29, 2013'
p1932
sg5
S'Montr\xc3\xa9al'
p1933
sg7
S'Washington'
p1934
sg9
S'5:00 PM ET'
p1935
sa(dp1936
g3
S'Fri Nov 29, 2013'
p1937
sg5
S'Colorado'
p1938
sg7
S'Minnesota'
p1939
sg9
S'6:00 PM ET'
p1940
sa(dp1941
g3
S'Fri Nov 29, 2013'
p1942
sg5
S'New Jersey'
p1943
sg7
S'Carolina'
p1944
sg9
S'7:00 PM ET'
p1945
sa(dp1946
g3
S'Fri Nov 29, 2013'
p1947
sg5
S'Edmonton'
p1948
sg7
S'Columbus'
p1949
sg9
S'7:00 PM ET'
p1950
sa(dp1951
g3
S'Fri Nov 29, 2013'
p1952
sg5
S'Toronto'
p1953
sg7
S'Buffalo'
p1954
sg9
S'7:30 PM ET'
p1955
sa(dp1956
g3
S'Fri Nov 29, 2013'
p1957
sg5
S'Chicago'
p1958
sg7
S'Dallas'
p1959
sg9
S'8:30 PM ET'
p1960
sa(dp1961
g3
S'Sat Nov 30, 2013'
p1962
sg5
S'Vancouver'
p1963
sg7
S'NY Rangers'
p1964
sg9
S'2:00 PM ET'
p1965
sa(dp1966
g3
S'Sat Nov 30, 2013'
p1967
sg5
S'Columbus'
p1968
sg7
S'Boston'
p1969
sg9
S'7:00 PM ET'
p1970
sa(dp1971
g3
S'Sat Nov 30, 2013'
p1972
sg5
S'Toronto'
p1973
sg7
S'Montr\xc3\xa9al'
p1974
sg9
S'7:00 PM ET'
p1975
sa(dp1976
g3
S'Sat Nov 30, 2013'
p1977
sg5
S'Pittsburgh'
p1978
sg7
S'Florida'
p1979
sg9
S'7:00 PM ET'
p1980
sa(dp1981
g3
S'Sat Nov 30, 2013'
p1982
sg5
S'Buffalo'
p1983
sg7
S'New Jersey'
p1984
sg9
S'7:00 PM ET'
p1985
sa(dp1986
g3
S'Sat Nov 30, 2013'
p1987
sg5
S'Washington'
p1988
sg7
S'NY Islanders'
p1989
sg9
S'7:00 PM ET'
p1990
sa(dp1991
g3
S'Sat Nov 30, 2013'
p1992
sg5
S'Philadelphia'
p1993
sg7
S'Nashville'
p1994
sg9
S'8:00 PM ET'
p1995
sa(dp1996
g3
S'Sat Nov 30, 2013'
p1997
sg5
S'Chicago'
p1998
sg7
S'Phoenix'
p1999
sg9
S'8:00 PM ET'
p2000
sa(dp2001
g3
S'Sat Nov 30, 2013'
p2002
sg5
S'Minnesota'
p2003
sg7
S'Colorado'
p2004
sg9
S'9:00 PM ET'
p2005
sa(dp2006
g3
S'Sat Nov 30, 2013'
p2007
sg5
S'Calgary'
p2008
sg7
S'Los Angeles'
p2009
sg9
S'10:00 PM ET'
p2010
sa(dp2011
g3
S'Sat Nov 30, 2013'
p2012
sg5
S'Anaheim'
p2013
sg7
S'San Jose'
p2014
sg9
S'10:30 PM ET'
p2015
sa(dp2016
g3
S'Sun Dec 1, 2013'
p2017
sg5
S'Vancouver'
p2018
sg7
S'Carolina'
p2019
sg9
S'1:00 PM ET'
p2020
sa(dp2021
g3
S'Sun Dec 1, 2013'
p2022
sg5
S'Detroit'
p2023
sg7
S'Ottawa'
p2024
sg9
S'5:30 PM ET'
p2025
sa(dp2026
g3
S'Sun Dec 1, 2013'
p2027
sg5
S'Edmonton'
p2028
sg7
S'Dallas'
p2029
sg9
S'6:00 PM ET'
p2030
sa(dp2031
g3
S'Mon Dec 2, 2013'
p2032
sg5
S'Winnipeg'
p2033
sg7
S'NY Rangers'
p2034
sg9
S'7:00 PM ET'
p2035
sa(dp2036
g3
S'Mon Dec 2, 2013'
p2037
sg5
S'New Jersey'
p2038
sg7
S'Montr\xc3\xa9al'
p2039
sg9
S'7:30 PM ET'
p2040
sa(dp2041
g3
S'Mon Dec 2, 2013'
p2042
sg5
S'Philadelphia'
p2043
sg7
S'Minnesota'
p2044
sg9
S'8:00 PM ET'
p2045
sa(dp2046
g3
S'Mon Dec 2, 2013'
p2047
sg5
S'St. Louis'
p2048
sg7
S'Los Angeles'
p2049
sg9
S'10:30 PM ET'
p2050
sa(dp2051
g3
S'Tue Dec 3, 2013'
p2052
sg5
S'San Jose'
p2053
sg7
S'Toronto'
p2054
sg9
S'7:00 PM ET'
p2055
sa(dp2056
g3
S'Tue Dec 3, 2013'
p2057
sg5
S'Pittsburgh'
p2058
sg7
S'NY Islanders'
p2059
sg9
S'7:00 PM ET'
p2060
sa(dp2061
g3
S'Tue Dec 3, 2013'
p2062
sg5
S'Carolina'
p2063
sg7
S'Washington'
p2064
sg9
S'7:00 PM ET'
p2065
sa(dp2066
g3
S'Tue Dec 3, 2013'
p2067
sg5
S'Tampa Bay'
p2068
sg7
S'Columbus'
p2069
sg9
S'7:00 PM ET'
p2070
sa(dp2071
g3
S'Tue Dec 3, 2013'
p2072
sg5
S'Ottawa'
p2073
sg7
S'Florida'
p2074
sg9
S'7:30 PM ET'
p2075
sa(dp2076
g3
S'Tue Dec 3, 2013'
p2077
sg5
S'Dallas'
p2078
sg7
S'Chicago'
p2079
sg9
S'8:00 PM ET'
p2080
sa(dp2081
g3
S'Tue Dec 3, 2013'
p2082
sg5
S'Vancouver'
p2083
sg7
S'Nashville'
p2084
sg9
S'8:00 PM ET'
p2085
sa(dp2086
g3
S'Tue Dec 3, 2013'
p2087
sg5
S'Phoenix'
p2088
sg7
S'Edmonton'
p2089
sg9
S'9:30 PM ET'
p2090
sa(dp2091
g3
S'Tue Dec 3, 2013'
p2092
sg5
S'Los Angeles'
p2093
sg7
S'Anaheim'
p2094
sg9
S'10:00 PM ET'
p2095
sa(dp2096
g3
S'Wed Dec 4, 2013'
p2097
sg5
S'Montr\xc3\xa9al'
p2098
sg7
S'New Jersey'
p2099
sg9
S'7:00 PM ET'
p2100
sa(dp2101
g3
S'Wed Dec 4, 2013'
p2102
sg5
S'Philadelphia'
p2103
sg7
S'Detroit'
p2104
sg9
S'8:00 PM ET'
p2105
sa(dp2106
g3
S'Wed Dec 4, 2013'
p2107
sg5
S'Phoenix'
p2108
sg7
S'Calgary'
p2109
sg9
S'10:00 PM ET'
p2110
sa(dp2111
g3
S'Thu Dec 5, 2013'
p2112
sg5
S'NY Rangers'
p2113
sg7
S'Buffalo'
p2114
sg9
S'7:00 PM ET'
p2115
sa(dp2116
g3
S'Thu Dec 5, 2013'
p2117
sg5
S'Dallas'
p2118
sg7
S'Toronto'
p2119
sg9
S'7:00 PM ET'
p2120
sa(dp2121
g3
S'Thu Dec 5, 2013'
p2122
sg5
S'San Jose'
p2123
sg7
S'Pittsburgh'
p2124
sg9
S'7:00 PM ET'
p2125
sa(dp2126
g3
S'Thu Dec 5, 2013'
p2127
sg5
S'Boston'
p2128
sg7
S'Montr\xc3\xa9al'
p2129
sg9
S'7:30 PM ET'
p2130
sa(dp2131
g3
S'Thu Dec 5, 2013'
p2132
sg5
S'Ottawa'
p2133
sg7
S'Tampa Bay'
p2134
sg9
S'7:30 PM ET'
p2135
sa(dp2136
g3
S'Thu Dec 5, 2013'
p2137
sg5
S'Winnipeg'
p2138
sg7
S'Florida'
p2139
sg9
S'7:30 PM ET'
p2140
sa(dp2141
g3
S'Thu Dec 5, 2013'
p2142
sg5
S'NY Islanders'
p2143
sg7
S'St. Louis'
p2144
sg9
S'8:00 PM ET'
p2145
sa(dp2146
g3
S'Thu Dec 5, 2013'
p2147
sg5
S'Carolina'
p2148
sg7
S'Nashville'
p2149
sg9
S'8:00 PM ET'
p2150
sa(dp2151
g3
S'Thu Dec 5, 2013'
p2152
sg5
S'Chicago'
p2153
sg7
S'Minnesota'
p2154
sg9
S'8:00 PM ET'
p2155
sa(dp2156
g3
S'Thu Dec 5, 2013'
p2157
sg5
S'Colorado'
p2158
sg7
S'Edmonton'
p2159
sg9
S'9:30 PM ET'
p2160
sa(dp2161
g3
S'Fri Dec 6, 2013'
p2162
sg5
S'Detroit'
p2163
sg7
S'New Jersey'
p2164
sg9
S'7:00 PM ET'
p2165
sa(dp2166
g3
S'Fri Dec 6, 2013'
p2167
sg5
S'San Jose'
p2168
sg7
S'Carolina'
p2169
sg9
S'7:00 PM ET'
p2170
sa(dp2171
g3
S'Fri Dec 6, 2013'
p2172
sg5
S'Minnesota'
p2173
sg7
S'Columbus'
p2174
sg9
S'7:00 PM ET'
p2175
sa(dp2176
g3
S'Fri Dec 6, 2013'
p2177
sg5
S'Anaheim'
p2178
sg7
S'Chicago'
p2179
sg9
S'8:00 PM ET'
p2180
sa(dp2181
g3
S'Fri Dec 6, 2013'
p2182
sg5
S'Colorado'
p2183
sg7
S'Calgary'
p2184
sg9
S'9:00 PM ET'
p2185
sa(dp2186
g3
S'Fri Dec 6, 2013'
p2187
sg5
S'Phoenix'
p2188
sg7
S'Vancouver'
p2189
sg9
S'10:00 PM ET'
p2190
sa(dp2191
g3
S'Sat Dec 7, 2013'
p2192
sg5
S'Philadelphia'
p2193
sg7
S'Dallas'
p2194
sg9
S'2:00 PM ET'
p2195
sa(dp2196
g3
S'Sat Dec 7, 2013'
p2197
sg5
S'Pittsburgh'
p2198
sg7
S'Boston'
p2199
sg9
S'7:00 PM ET'
p2200
sa(dp2201
g3
S'Sat Dec 7, 2013'
p2202
sg5
S'Buffalo'
p2203
sg7
S'Montr\xc3\xa9al'
p2204
sg9
S'7:00 PM ET'
p2205
sa(dp2206
g3
S'Sat Dec 7, 2013'
p2207
sg5
S'Toronto'
p2208
sg7
S'Ottawa'
p2209
sg9
S'7:00 PM ET'
p2210
sa(dp2211
g3
S'Sat Dec 7, 2013'
p2212
sg5
S'Florida'
p2213
sg7
S'Detroit'
p2214
sg9
S'7:00 PM ET'
p2215
sa(dp2216
g3
S'Sat Dec 7, 2013'
p2217
sg5
S'Winnipeg'
p2218
sg7
S'Tampa Bay'
p2219
sg9
S'7:00 PM ET'
p2220
sa(dp2221
g3
S'Sat Dec 7, 2013'
p2222
sg5
S'Nashville'
p2223
sg7
S'Washington'
p2224
sg9
S'7:00 PM ET'
p2225
sa(dp2226
g3
S'Sat Dec 7, 2013'
p2227
sg5
S'New Jersey'
p2228
sg7
S'NY Rangers'
p2229
sg9
S'7:30 PM ET'
p2230
sa(dp2231
g3
S'Sat Dec 7, 2013'
p2232
sg5
S'Anaheim'
p2233
sg7
S'St. Louis'
p2234
sg9
S'8:00 PM ET'
p2235
sa(dp2236
g3
S'Sat Dec 7, 2013'
p2237
sg5
S'Calgary'
p2238
sg7
S'Edmonton'
p2239
sg9
S'10:00 PM ET'
p2240
sa(dp2241
g3
S'Sat Dec 7, 2013'
p2242
sg5
S'NY Islanders'
p2243
sg7
S'Los Angeles'
p2244
sg9
S'10:30 PM ET'
p2245
sa(dp2246
g3
S'Sun Dec 8, 2013'
p2247
sg5
S'San Jose'
p2248
sg7
S'Minnesota'
p2249
sg9
S'6:00 PM ET'
p2250
sa(dp2251
g3
S'Sun Dec 8, 2013'
p2252
sg5
S'Boston'
p2253
sg7
S'Toronto'
p2254
sg9
S'7:00 PM ET'
p2255
sa(dp2256
g3
S'Sun Dec 8, 2013'
p2257
sg5
S'Washington'
p2258
sg7
S'NY Rangers'
p2259
sg9
S'7:00 PM ET'
p2260
sa(dp2261
g3
S'Sun Dec 8, 2013'
p2262
sg5
S'Florida'
p2263
sg7
S'Chicago'
p2264
sg9
S'7:00 PM ET'
p2265
sa(dp2266
g3
S'Sun Dec 8, 2013'
p2267
sg5
S'Colorado'
p2268
sg7
S'Vancouver'
p2269
sg9
S'8:00 PM ET'
p2270
sa(dp2271
g3
S'Mon Dec 9, 2013'
p2272
sg5
S'Philadelphia'
p2273
sg7
S'Ottawa'
p2274
sg9
S'7:30 PM ET'
p2275
sa(dp2276
g3
S'Mon Dec 9, 2013'
p2277
sg5
S'Columbus'
p2278
sg7
S'Pittsburgh'
p2279
sg9
S'7:30 PM ET'
p2280
sa(dp2281
g3
S'Mon Dec 9, 2013'
p2282
sg5
S'Carolina'
p2283
sg7
S'Vancouver'
p2284
sg9
S'10:00 PM ET'
p2285
sa(dp2286
g3
S'Mon Dec 9, 2013'
p2287
sg5
S'NY Islanders'
p2288
sg7
S'Anaheim'
p2289
sg9
S'10:00 PM ET'
p2290
sa(dp2291
g3
S'Tue Dec 10, 2013'
p2292
sg5
S'Ottawa'
p2293
sg7
S'Buffalo'
p2294
sg9
S'7:00 PM ET'
p2295
sa(dp2296
g3
S'Tue Dec 10, 2013'
p2297
sg5
S'Tampa Bay'
p2298
sg7
S'Washington'
p2299
sg9
S'7:00 PM ET'
p2300
sa(dp2301
g3
S'Tue Dec 10, 2013'
p2302
sg5
S'New Jersey'
p2303
sg7
S'Columbus'
p2304
sg9
S'7:00 PM ET'
p2305
sa(dp2306
g3
S'Tue Dec 10, 2013'
p2307
sg5
S'Los Angeles'
p2308
sg7
S'Montr\xc3\xa9al'
p2309
sg9
S'7:00 PM ET'
p2310
sa(dp2311
g3
S'Tue Dec 10, 2013'
p2312
sg5
S'Detroit'
p2313
sg7
S'Florida'
p2314
sg9
S'7:30 PM ET'
p2315
sa(dp2316
g3
S'Tue Dec 10, 2013'
p2317
sg5
S'Nashville'
p2318
sg7
S'NY Rangers'
p2319
sg9
S'7:30 PM ET'
p2320
sa(dp2321
g3
S'Tue Dec 10, 2013'
p2322
sg5
S'St. Louis'
p2323
sg7
S'Winnipeg'
p2324
sg9
S'8:00 PM ET'
p2325
sa(dp2326
g3
S'Tue Dec 10, 2013'
p2327
sg5
S'Chicago'
p2328
sg7
S'Dallas'
p2329
sg9
S'8:30 PM ET'
p2330
sa(dp2331
g3
S'Tue Dec 10, 2013'
p2332
sg5
S'Phoenix'
p2333
sg7
S'Colorado'
p2334
sg9
S'9:00 PM ET'
p2335
sa(dp2336
g3
S'Tue Dec 10, 2013'
p2337
sg5
S'Boston'
p2338
sg7
S'Calgary'
p2339
sg9
S'9:30 PM ET'
p2340
sa(dp2341
g3
S'Tue Dec 10, 2013'
p2342
sg5
S'Carolina'
p2343
sg7
S'Edmonton'
p2344
sg9
S'9:30 PM ET'
p2345
sa(dp2346
g3
S'Tue Dec 10, 2013'
p2347
sg5
S'NY Islanders'
p2348
sg7
S'San Jose'
p2349
sg9
S'10:30 PM ET'
p2350
sa(dp2351
g3
S'Wed Dec 11, 2013'
p2352
sg5
S'Los Angeles'
p2353
sg7
S'Toronto'
p2354
sg9
S'7:30 PM ET'
p2355
sa(dp2356
g3
S'Wed Dec 11, 2013'
p2357
sg5
S'Philadelphia'
p2358
sg7
S'Chicago'
p2359
sg9
S'8:00 PM ET'
p2360
sa(dp2361
g3
S'Wed Dec 11, 2013'
p2362
sg5
S'Minnesota'
p2363
sg7
S'Anaheim'
p2364
sg9
S'10:30 PM ET'
p2365
sa(dp2366
g3
S'Thu Dec 12, 2013'
p2367
sg5
S'Columbus'
p2368
sg7
S'NY Rangers'
p2369
sg9
S'7:00 PM ET'
p2370
sa(dp2371
g3
S'Thu Dec 12, 2013'
p2372
sg5
S'Montr\xc3\xa9al'
p2373
sg7
S'Philadelphia'
p2374
sg9
S'7:00 PM ET'
p2375
sa(dp2376
g3
S'Thu Dec 12, 2013'
p2377
sg5
S'Buffalo'
p2378
sg7
S'Ottawa'
p2379
sg9
S'7:30 PM ET'
p2380
sa(dp2381
g3
S'Thu Dec 12, 2013'
p2382
sg5
S'Detroit'
p2383
sg7
S'Tampa Bay'
p2384
sg9
S'7:30 PM ET'
p2385
sa(dp2386
g3
S'Thu Dec 12, 2013'
p2387
sg5
S'Toronto'
p2388
sg7
S'St. Louis'
p2389
sg9
S'8:00 PM ET'
p2390
sa(dp2391
g3
S'Thu Dec 12, 2013'
p2392
sg5
S'Dallas'
p2393
sg7
S'Nashville'
p2394
sg9
S'8:00 PM ET'
p2395
sa(dp2396
g3
S'Thu Dec 12, 2013'
p2397
sg5
S'Colorado'
p2398
sg7
S'Winnipeg'
p2399
sg9
S'8:00 PM ET'
p2400
sa(dp2401
g3
S'Thu Dec 12, 2013'
p2402
sg5
S'Carolina'
p2403
sg7
S'Calgary'
p2404
sg9
S'9:00 PM ET'
p2405
sa(dp2406
g3
S'Thu Dec 12, 2013'
p2407
sg5
S'NY Islanders'
p2408
sg7
S'Phoenix'
p2409
sg9
S'9:00 PM ET'
p2410
sa(dp2411
g3
S'Thu Dec 12, 2013'
p2412
sg5
S'Boston'
p2413
sg7
S'Edmonton'
p2414
sg9
S'9:30 PM ET'
p2415
sa(dp2416
g3
S'Thu Dec 12, 2013'
p2417
sg5
S'Minnesota'
p2418
sg7
S'San Jose'
p2419
sg9
S'10:30 PM ET'
p2420
sa(dp2421
g3
S'Fri Dec 13, 2013'
p2422
sg5
S'New Jersey'
p2423
sg7
S'Pittsburgh'
p2424
sg9
S'7:00 PM ET'
p2425
sa(dp2426
g3
S'Fri Dec 13, 2013'
p2427
sg5
S'Washington'
p2428
sg7
S'Florida'
p2429
sg9
S'7:30 PM ET'
p2430
sa(dp2431
g3
S'Fri Dec 13, 2013'
p2432
sg5
S'Edmonton'
p2433
sg7
S'Vancouver'
p2434
sg9
S'9:00 PM ET'
p2435
sa(dp2436
g3
S'Sat Dec 14, 2013'
p2437
sg5
S'Calgary'
p2438
sg7
S'Buffalo'
p2439
sg9
S'2:00 PM ET'
p2440
sa(dp2441
g3
S'Sat Dec 14, 2013'
p2442
sg5
S'Los Angeles'
p2443
sg7
S'Ottawa'
p2444
sg9
S'2:00 PM ET'
p2445
sa(dp2446
g3
S'Sat Dec 14, 2013'
p2447
sg5
S'Dallas'
p2448
sg7
S'Winnipeg'
p2449
sg9
S'3:00 PM ET'
p2450
sa(dp2451
g3
S'Sat Dec 14, 2013'
p2452
sg5
S'Chicago'
p2453
sg7
S'Toronto'
p2454
sg9
S'7:00 PM ET'
p2455
sa(dp2456
g3
S'Sat Dec 14, 2013'
p2457
sg5
S'Pittsburgh'
p2458
sg7
S'Detroit'
p2459
sg9
S'7:00 PM ET'
p2460
sa(dp2461
g3
S'Sat Dec 14, 2013'
p2462
sg5
S'Tampa Bay'
p2463
sg7
S'New Jersey'
p2464
sg9
S'7:00 PM ET'
p2465
sa(dp2466
g3
S'Sat Dec 14, 2013'
p2467
sg5
S'Montr\xc3\xa9al'
p2468
sg7
S'NY Islanders'
p2469
sg9
S'7:00 PM ET'
p2470
sa(dp2471
g3
S'Sat Dec 14, 2013'
p2472
sg5
S'St. Louis'
p2473
sg7
S'Columbus'
p2474
sg9
S'7:00 PM ET'
p2475
sa(dp2476
g3
S'Sat Dec 14, 2013'
p2477
sg5
S'San Jose'
p2478
sg7
S'Nashville'
p2479
sg9
S'8:00 PM ET'
p2480
sa(dp2481
g3
S'Sat Dec 14, 2013'
p2482
sg5
S'Carolina'
p2483
sg7
S'Phoenix'
p2484
sg9
S'8:00 PM ET'
p2485
sa(dp2486
g3
S'Sat Dec 14, 2013'
p2487
sg5
S'Minnesota'
p2488
sg7
S'Colorado'
p2489
sg9
S'9:00 PM ET'
p2490
sa(dp2491
g3
S'Sat Dec 14, 2013'
p2492
sg5
S'Boston'
p2493
sg7
S'Vancouver'
p2494
sg9
S'10:00 PM ET'
p2495
sa(dp2496
g3
S'Sun Dec 15, 2013'
p2497
sg5
S'Philadelphia'
p2498
sg7
S'Washington'
p2499
sg9
S'3:00 PM ET'
p2500
sa(dp2501
g3
S'Sun Dec 15, 2013'
p2502
sg5
S'Tampa Bay'
p2503
sg7
S'Detroit'
p2504
sg9
S'5:00 PM ET'
p2505
sa(dp2506
g3
S'Sun Dec 15, 2013'
p2507
sg5
S'Florida'
p2508
sg7
S'Montr\xc3\xa9al'
p2509
sg9
S'6:00 PM ET'
p2510
sa(dp2511
g3
S'Sun Dec 15, 2013'
p2512
sg5
S'Calgary'
p2513
sg7
S'NY Rangers'
p2514
sg9
S'7:00 PM ET'
p2515
sa(dp2516
g3
S'Sun Dec 15, 2013'
p2517
sg5
S'Los Angeles'
p2518
sg7
S'Chicago'
p2519
sg9
S'7:00 PM ET'
p2520
sa(dp2521
g3
S'Sun Dec 15, 2013'
p2522
sg5
S'Edmonton'
p2523
sg7
S'Anaheim'
p2524
sg9
S'8:00 PM ET'
p2525
sa(dp2526
g3
S'Mon Dec 16, 2013'
p2527
sg5
S'Toronto'
p2528
sg7
S'Pittsburgh'
p2529
sg9
S'7:00 PM ET'
p2530
sa(dp2531
g3
S'Mon Dec 16, 2013'
p2532
sg5
S'Winnipeg'
p2533
sg7
S'Columbus'
p2534
sg9
S'7:00 PM ET'
p2535
sa(dp2536
g3
S'Mon Dec 16, 2013'
p2537
sg5
S'St. Louis'
p2538
sg7
S'Ottawa'
p2539
sg9
S'7:30 PM ET'
p2540
sa(dp2541
g3
S'Mon Dec 16, 2013'
p2542
sg5
S'Dallas'
p2543
sg7
S'Colorado'
p2544
sg9
S'9:00 PM ET'
p2545
sa(dp2546
g3
S'Tue Dec 17, 2013'
p2547
sg5
S'Calgary'
p2548
sg7
S'Boston'
p2549
sg9
S'7:00 PM ET'
p2550
sa(dp2551
g3
S'Tue Dec 17, 2013'
p2552
sg5
S'Winnipeg'
p2553
sg7
S'Buffalo'
p2554
sg9
S'7:00 PM ET'
p2555
sa(dp2556
g3
S'Tue Dec 17, 2013'
p2557
sg5
S'Florida'
p2558
sg7
S'Toronto'
p2559
sg9
S'7:00 PM ET'
p2560
sa(dp2561
g3
S'Tue Dec 17, 2013'
p2562
sg5
S'Tampa Bay'
p2563
sg7
S'NY Islanders'
p2564
sg9
S'7:00 PM ET'
p2565
sa(dp2566
g3
S'Tue Dec 17, 2013'
p2567
sg5
S'Phoenix'
p2568
sg7
S'Montr\xc3\xa9al'
p2569
sg9
S'7:30 PM ET'
p2570
sa(dp2571
g3
S'Tue Dec 17, 2013'
p2572
sg5
S'Anaheim'
p2573
sg7
S'Detroit'
p2574
sg9
S'7:30 PM ET'
p2575
sa(dp2576
g3
S'Tue Dec 17, 2013'
p2577
sg5
S'Washington'
p2578
sg7
S'Philadelphia'
p2579
sg9
S'7:30 PM ET'
p2580
sa(dp2581
g3
S'Tue Dec 17, 2013'
p2582
sg5
S'San Jose'
p2583
sg7
S'St. Louis'
p2584
sg9
S'8:00 PM ET'
p2585
sa(dp2586
g3
S'Tue Dec 17, 2013'
p2587
sg5
S'Chicago'
p2588
sg7
S'Nashville'
p2589
sg9
S'8:00 PM ET'
p2590
sa(dp2591
g3
S'Tue Dec 17, 2013'
p2592
sg5
S'Vancouver'
p2593
sg7
S'Minnesota'
p2594
sg9
S'8:00 PM ET'
p2595
sa(dp2596
g3
S'Tue Dec 17, 2013'
p2597
sg5
S'Colorado'
p2598
sg7
S'Dallas'
p2599
sg9
S'8:30 PM ET'
p2600
sa(dp2601
g3
S'Tue Dec 17, 2013'
p2602
sg5
S'Edmonton'
p2603
sg7
S'Los Angeles'
p2604
sg9
S'10:30 PM ET'
p2605
sa(dp2606
g3
S'Wed Dec 18, 2013'
p2607
sg5
S'Ottawa'
p2608
sg7
S'New Jersey'
p2609
sg9
S'7:30 PM ET'
p2610
sa(dp2611
g3
S'Wed Dec 18, 2013'
p2612
sg5
S'Pittsburgh'
p2613
sg7
S'NY Rangers'
p2614
sg9
S'8:00 PM ET'
p2615
sa(dp2616
g3
S'Thu Dec 19, 2013'
p2617
sg5
S'Boston'
p2618
sg7
S'Buffalo'
p2619
sg9
S'7:00 PM ET'
p2620
sa(dp2621
g3
S'Thu Dec 19, 2013'
p2622
sg5
S'Phoenix'
p2623
sg7
S'Toronto'
p2624
sg9
S'7:00 PM ET'
p2625
sa(dp2626
g3
S'Thu Dec 19, 2013'
p2627
sg5
S'Columbus'
p2628
sg7
S'Philadelphia'
p2629
sg9
S'7:00 PM ET'
p2630
sa(dp2631
g3
S'Thu Dec 19, 2013'
p2632
sg5
S'Minnesota'
p2633
sg7
S'Pittsburgh'
p2634
sg9
S'7:00 PM ET'
p2635
sa(dp2636
g3
S'Thu Dec 19, 2013'
p2637
sg5
S'Florida'
p2638
sg7
S'Ottawa'
p2639
sg9
S'7:30 PM ET'
p2640
sa(dp2641
g3
S'Thu Dec 19, 2013'
p2642
sg5
S'Calgary'
p2643
sg7
S'Detroit'
p2644
sg9
S'7:30 PM ET'
p2645
sa(dp2646
g3
S'Thu Dec 19, 2013'
p2647
sg5
S'Nashville'
p2648
sg7
S'Tampa Bay'
p2649
sg9
S'7:30 PM ET'
p2650
sa(dp2651
g3
S'Thu Dec 19, 2013'
p2652
sg5
S'Montr\xc3\xa9al'
p2653
sg7
S'St. Louis'
p2654
sg9
S'8:00 PM ET'
p2655
sa(dp2656
g3
S'Thu Dec 19, 2013'
p2657
sg5
S'Vancouver'
p2658
sg7
S'Dallas'
p2659
sg9
S'8:30 PM ET'
p2660
sa(dp2661
g3
S'Thu Dec 19, 2013'
p2662
sg5
S'Edmonton'
p2663
sg7
S'Colorado'
p2664
sg9
S'9:30 PM ET'
p2665
sa(dp2666
g3
S'Thu Dec 19, 2013'
p2667
sg5
S'San Jose'
p2668
sg7
S'Los Angeles'
p2669
sg9
S'10:30 PM ET'
p2670
sa(dp2671
g3
S'Fri Dec 20, 2013'
p2672
sg5
S'Anaheim'
p2673
sg7
S'New Jersey'
p2674
sg9
S'7:00 PM ET'
p2675
sa(dp2676
g3
S'Fri Dec 20, 2013'
p2677
sg5
S'NY Islanders'
p2678
sg7
S'NY Rangers'
p2679
sg9
S'7:00 PM ET'
p2680
sa(dp2681
g3
S'Fri Dec 20, 2013'
p2682
sg5
S'Washington'
p2683
sg7
S'Carolina'
p2684
sg9
S'7:00 PM ET'
p2685
sa(dp2686
g3
S'Fri Dec 20, 2013'
p2687
sg5
S'Vancouver'
p2688
sg7
S'Chicago'
p2689
sg9
S'8:00 PM ET'
p2690
sa(dp2691
g3
S'Fri Dec 20, 2013'
p2692
sg5
S'Florida'
p2693
sg7
S'Winnipeg'
p2694
sg9
S'8:00 PM ET'
p2695
sa(dp2696
g3
S'Sat Dec 21, 2013'
p2697
sg5
S'Calgary'
p2698
sg7
S'Pittsburgh'
p2699
sg9
S'1:00 PM ET'
p2700
sa(dp2701
g3
S'Sat Dec 21, 2013'
p2702
sg5
S'Phoenix'
p2703
sg7
S'Ottawa'
p2704
sg9
S'2:00 PM ET'
p2705
sa(dp2706
g3
S'Sat Dec 21, 2013'
p2707
sg5
S'Colorado'
p2708
sg7
S'Los Angeles'
p2709
sg9
S'4:00 PM ET'
p2710
sa(dp2711
g3
S'Sat Dec 21, 2013'
p2712
sg5
S'Buffalo'
p2713
sg7
S'Boston'
p2714
sg9
S'7:00 PM ET'
p2715
sa(dp2716
g3
S'Sat Dec 21, 2013'
p2717
sg5
S'Detroit'
p2718
sg7
S'Toronto'
p2719
sg9
S'7:00 PM ET'
p2720
sa(dp2721
g3
S'Sat Dec 21, 2013'
p2722
sg5
S'Carolina'
p2723
sg7
S'Tampa Bay'
p2724
sg9
S'7:00 PM ET'
p2725
sa(dp2726
g3
S'Sat Dec 21, 2013'
p2727
sg5
S'Anaheim'
p2728
sg7
S'NY Islanders'
p2729
sg9
S'7:00 PM ET'
p2730
sa(dp2731
g3
S'Sat Dec 21, 2013'
p2732
sg5
S'New Jersey'
p2733
sg7
S'Washington'
p2734
sg9
S'7:00 PM ET'
p2735
sa(dp2736
g3
S'Sat Dec 21, 2013'
p2737
sg5
S'Philadelphia'
p2738
sg7
S'Columbus'
p2739
sg9
S'7:00 PM ET'
p2740
sa(dp2741
g3
S'Sat Dec 21, 2013'
p2742
sg5
S'Montr\xc3\xa9al'
p2743
sg7
S'Nashville'
p2744
sg9
S'7:00 PM ET'
p2745
sa(dp2746
g3
S'Sat Dec 21, 2013'
p2747
sg5
S'St. Louis'
p2748
sg7
S'Edmonton'
p2749
sg9
S'10:00 PM ET'
p2750
sa(dp2751
g3
S'Sat Dec 21, 2013'
p2752
sg5
S'Dallas'
p2753
sg7
S'San Jose'
p2754
sg9
S'10:30 PM ET'
p2755
sa(dp2756
g3
S'Sun Dec 22, 2013'
p2757
sg5
S'Minnesota'
p2758
sg7
S'NY Rangers'
p2759
sg9
S'7:30 PM ET'
p2760
sa(dp2761
g3
S'Sun Dec 22, 2013'
p2762
sg5
S'Winnipeg'
p2763
sg7
S'Vancouver'
p2764
sg9
S'8:00 PM ET'
p2765
sa(dp2766
g3
S'Mon Dec 23, 2013'
p2767
sg5
S'Phoenix'
p2768
sg7
S'Buffalo'
p2769
sg9
S'7:00 PM ET'
p2770
sa(dp2771
g3
S'Mon Dec 23, 2013'
p2772
sg5
S'Toronto'
p2773
sg7
S'NY Rangers'
p2774
sg9
S'7:00 PM ET'
p2775
sa(dp2776
g3
S'Mon Dec 23, 2013'
p2777
sg5
S'Anaheim'
p2778
sg7
S'Washington'
p2779
sg9
S'7:00 PM ET'
p2780
sa(dp2781
g3
S'Mon Dec 23, 2013'
p2782
sg5
S'Columbus'
p2783
sg7
S'Carolina'
p2784
sg9
S'7:00 PM ET'
p2785
sa(dp2786
g3
S'Mon Dec 23, 2013'
p2787
sg5
S'Pittsburgh'
p2788
sg7
S'Ottawa'
p2789
sg9
S'7:30 PM ET'
p2790
sa(dp2791
g3
S'Mon Dec 23, 2013'
p2792
sg5
S'NY Islanders'
p2793
sg7
S'Detroit'
p2794
sg9
S'7:30 PM ET'
p2795
sa(dp2796
g3
S'Mon Dec 23, 2013'
p2797
sg5
S'Tampa Bay'
p2798
sg7
S'Florida'
p2799
sg9
S'7:30 PM ET'
p2800
sa(dp2801
g3
S'Mon Dec 23, 2013'
p2802
sg5
S'Minnesota'
p2803
sg7
S'Philadelphia'
p2804
sg9
S'7:30 PM ET'
p2805
sa(dp2806
g3
S'Mon Dec 23, 2013'
p2807
sg5
S'New Jersey'
p2808
sg7
S'Chicago'
p2809
sg9
S'8:00 PM ET'
p2810
sa(dp2811
g3
S'Mon Dec 23, 2013'
p2812
sg5
S'Boston'
p2813
sg7
S'Nashville'
p2814
sg9
S'8:00 PM ET'
p2815
sa(dp2816
g3
S'Mon Dec 23, 2013'
p2817
sg5
S'St. Louis'
p2818
sg7
S'Calgary'
p2819
sg9
S'9:00 PM ET'
p2820
sa(dp2821
g3
S'Mon Dec 23, 2013'
p2822
sg5
S'Winnipeg'
p2823
sg7
S'Edmonton'
p2824
sg9
S'9:30 PM ET'
p2825
sa(dp2826
g3
S'Mon Dec 23, 2013'
p2827
sg5
S'Dallas'
p2828
sg7
S'Los Angeles'
p2829
sg9
S'10:30 PM ET'
p2830
sa(dp2831
g3
S'Mon Dec 23, 2013'
p2832
sg5
S'Colorado'
p2833
sg7
S'San Jose'
p2834
sg9
S'10:30 PM ET'
p2835
sa(dp2836
g3
S'Fri Dec 27, 2013'
p2837
sg5
S'Ottawa'
p2838
sg7
S'Boston'
p2839
sg9
S'7:00 PM ET'
p2840
sa(dp2841
g3
S'Fri Dec 27, 2013'
p2842
sg5
S'Columbus'
p2843
sg7
S'New Jersey'
p2844
sg9
S'7:00 PM ET'
p2845
sa(dp2846
g3
S'Fri Dec 27, 2013'
p2847
sg5
S'NY Rangers'
p2848
sg7
S'Washington'
p2849
sg9
S'7:00 PM ET'
p2850
sa(dp2851
g3
S'Fri Dec 27, 2013'
p2852
sg5
S'Pittsburgh'
p2853
sg7
S'Carolina'
p2854
sg9
S'7:00 PM ET'
p2855
sa(dp2856
g3
S'Fri Dec 27, 2013'
p2857
sg5
S'Buffalo'
p2858
sg7
S'Toronto'
p2859
sg9
S'7:30 PM ET'
p2860
sa(dp2861
g3
S'Fri Dec 27, 2013'
p2862
sg5
S'Colorado'
p2863
sg7
S'Chicago'
p2864
sg9
S'8:00 PM ET'
p2865
sa(dp2866
g3
S'Fri Dec 27, 2013'
p2867
sg5
S'Minnesota'
p2868
sg7
S'Winnipeg'
p2869
sg9
S'8:00 PM ET'
p2870
sa(dp2871
g3
S'Fri Dec 27, 2013'
p2872
sg5
S'Nashville'
p2873
sg7
S'Dallas'
p2874
sg9
S'8:30 PM ET'
p2875
sa(dp2876
g3
S'Fri Dec 27, 2013'
p2877
sg5
S'Edmonton'
p2878
sg7
S'Calgary'
p2879
sg9
S'9:00 PM ET'
p2880
sa(dp2881
g3
S'Fri Dec 27, 2013'
p2882
sg5
S'San Jose'
p2883
sg7
S'Phoenix'
p2884
sg9
S'9:00 PM ET'
p2885
sa(dp2886
g3
S'Sat Dec 28, 2013'
p2887
sg5
S'Boston'
p2888
sg7
S'Ottawa'
p2889
sg9
S'7:00 PM ET'
p2890
sa(dp2891
g3
S'Sat Dec 28, 2013'
p2892
sg5
S'Montr\xc3\xa9al'
p2893
sg7
S'Tampa Bay'
p2894
sg9
S'7:00 PM ET'
p2895
sa(dp2896
g3
S'Sat Dec 28, 2013'
p2897
sg5
S'Detroit'
p2898
sg7
S'Florida'
p2899
sg9
S'7:00 PM ET'
p2900
sa(dp2901
g3
S'Sat Dec 28, 2013'
p2902
sg5
S'New Jersey'
p2903
sg7
S'NY Islanders'
p2904
sg9
S'7:00 PM ET'
p2905
sa(dp2906
g3
S'Sat Dec 28, 2013'
p2907
sg5
S'Chicago'
p2908
sg7
S'St. Louis'
p2909
sg9
S'8:00 PM ET'
p2910
sa(dp2911
g3
S'Sat Dec 28, 2013'
p2912
sg5
S'Los Angeles'
p2913
sg7
S'Nashville'
p2914
sg9
S'8:00 PM ET'
p2915
sa(dp2916
g3
S'Sat Dec 28, 2013'
p2917
sg5
S'Phoenix'
p2918
sg7
S'Anaheim'
p2919
sg9
S'8:00 PM ET'
p2920
sa(dp2921
g3
S'Sat Dec 28, 2013'
p2922
sg5
S'Philadelphia'
p2923
sg7
S'Edmonton'
p2924
sg9
S'10:00 PM ET'
p2925
sa(dp2926
g3
S'Sun Dec 29, 2013'
p2927
sg5
S'Washington'
p2928
sg7
S'Buffalo'
p2929
sg9
S'5:00 PM ET'
p2930
sa(dp2931
g3
S'Sun Dec 29, 2013'
p2932
sg5
S'Montr\xc3\xa9al'
p2933
sg7
S'Florida'
p2934
sg9
S'5:00 PM ET'
p2935
sa(dp2936
g3
S'Sun Dec 29, 2013'
p2937
sg5
S'Pittsburgh'
p2938
sg7
S'Columbus'
p2939
sg9
S'6:00 PM ET'
p2940
sa(dp2941
g3
S'Sun Dec 29, 2013'
p2942
sg5
S'St. Louis'
p2943
sg7
S'Dallas'
p2944
sg9
S'6:00 PM ET'
p2945
sa(dp2946
g3
S'Sun Dec 29, 2013'
p2947
sg5
S'Carolina'
p2948
sg7
S'Toronto'
p2949
sg9
S'7:00 PM ET'
p2950
sa(dp2951
g3
S'Sun Dec 29, 2013'
p2952
sg5
S'NY Rangers'
p2953
sg7
S'Tampa Bay'
p2954
sg9
S'7:00 PM ET'
p2955
sa(dp2956
g3
S'Sun Dec 29, 2013'
p2957
sg5
S'Vancouver'
p2958
sg7
S'Calgary'
p2959
sg9
S'7:30 PM ET'
p2960
sa(dp2961
g3
S'Sun Dec 29, 2013'
p2962
sg5
S'NY Islanders'
p2963
sg7
S'Minnesota'
p2964
sg9
S'8:00 PM ET'
p2965
sa(dp2966
g3
S'Sun Dec 29, 2013'
p2967
sg5
S'Winnipeg'
p2968
sg7
S'Colorado'
p2969
sg9
S'8:00 PM ET'
p2970
sa(dp2971
g3
S'Sun Dec 29, 2013'
p2972
sg5
S'Anaheim'
p2973
sg7
S'San Jose'
p2974
sg9
S'10:30 PM ET'
p2975
sa(dp2976
g3
S'Mon Dec 30, 2013'
p2977
sg5
S'Washington'
p2978
sg7
S'Ottawa'
p2979
sg9
S'7:30 PM ET'
p2980
sa(dp2981
g3
S'Mon Dec 30, 2013'
p2982
sg5
S'Los Angeles'
p2983
sg7
S'Chicago'
p2984
sg9
S'8:00 PM ET'
p2985
sa(dp2986
g3
S'Mon Dec 30, 2013'
p2987
sg5
S'Detroit'
p2988
sg7
S'Nashville'
p2989
sg9
S'8:00 PM ET'
p2990
sa(dp2991
g3
S'Mon Dec 30, 2013'
p2992
sg5
S'Philadelphia'
p2993
sg7
S'Vancouver'
p2994
sg9
S'10:00 PM ET'
p2995
sa(dp2996
g3
S'Tue Dec 31, 2013'
p2997
sg5
S'Pittsburgh'
p2998
sg7
S'New Jersey'
p2999
sg9
S'1:00 PM ET'
p3000
sa(dp3001
g3
S'Tue Dec 31, 2013'
p3002
sg5
S'NY Rangers'
p3003
sg7
S'Florida'
p3004
sg9
S'5:00 PM ET'
p3005
sa(dp3006
g3
S'Tue Dec 31, 2013'
p3007
sg5
S'St. Louis'
p3008
sg7
S'Minnesota'
p3009
sg9
S'6:00 PM ET'
p3010
sa(dp3011
g3
S'Tue Dec 31, 2013'
p3012
sg5
S'NY Islanders'
p3013
sg7
S'Boston'
p3014
sg9
S'7:00 PM ET'
p3015
sa(dp3016
g3
S'Tue Dec 31, 2013'
p3017
sg5
S'Montr\xc3\xa9al'
p3018
sg7
S'Carolina'
p3019
sg9
S'7:00 PM ET'
p3020
sa(dp3021
g3
S'Tue Dec 31, 2013'
p3022
sg5
S'Buffalo'
p3023
sg7
S'Winnipeg'
p3024
sg9
S'7:00 PM ET'
p3025
sa(dp3026
g3
S'Tue Dec 31, 2013'
p3027
sg5
S'Los Angeles'
p3028
sg7
S'Dallas'
p3029
sg9
S'8:00 PM ET'
p3030
sa(dp3031
g3
S'Tue Dec 31, 2013'
p3032
sg5
S'Columbus'
p3033
sg7
S'Colorado'
p3034
sg9
S'8:00 PM ET'
p3035
sa(dp3036
g3
S'Tue Dec 31, 2013'
p3037
sg5
S'San Jose'
p3038
sg7
S'Anaheim'
p3039
sg9
S'8:00 PM ET'
p3040
sa(dp3041
g3
S'Tue Dec 31, 2013'
p3042
sg5
S'Philadelphia'
p3043
sg7
S'Calgary'
p3044
sg9
S'9:00 PM ET'
p3045
sa(dp3046
g3
S'Tue Dec 31, 2013'
p3047
sg5
S'Edmonton'
p3048
sg7
S'Phoenix'
p3049
sg9
S'9:00 PM ET'
p3050
sa(dp3051
g3
S'Wed Jan 1, 2014'
p3052
sg5
S'Toronto'
p3053
sg7
S'Detroit'
p3054
sg9
S'1:00 PM ET'
p3055
sa(dp3056
g3
S'Wed Jan 1, 2014'
p3057
sg5
S'Tampa Bay'
p3058
sg7
S'Vancouver'
p3059
sg9
S'10:00 PM ET'
p3060
sa(dp3061
g3
S'Thu Jan 2, 2014'
p3062
sg5
S'Nashville'
p3063
sg7
S'Boston'
p3064
sg9
S'7:00 PM ET'
p3065
sa(dp3066
g3
S'Thu Jan 2, 2014'
p3067
sg5
S'Chicago'
p3068
sg7
S'NY Islanders'
p3069
sg9
S'7:00 PM ET'
p3070
sa(dp3071
g3
S'Thu Jan 2, 2014'
p3072
sg5
S'Carolina'
p3073
sg7
S'Washington'
p3074
sg9
S'7:00 PM ET'
p3075
sa(dp3076
g3
S'Thu Jan 2, 2014'
p3077
sg5
S'Winnipeg'
p3078
sg7
S'Ottawa'
p3079
sg9
S'7:30 PM ET'
p3080
sa(dp3081
g3
S'Thu Jan 2, 2014'
p3082
sg5
S'Los Angeles'
p3083
sg7
S'St. Louis'
p3084
sg9
S'8:00 PM ET'
p3085
sa(dp3086
g3
S'Thu Jan 2, 2014'
p3087
sg5
S'Buffalo'
p3088
sg7
S'Minnesota'
p3089
sg9
S'8:00 PM ET'
p3090
sa(dp3091
g3
S'Thu Jan 2, 2014'
p3092
sg5
S'Montr\xc3\xa9al'
p3093
sg7
S'Dallas'
p3094
sg9
S'8:30 PM ET'
p3095
sa(dp3096
g3
S'Thu Jan 2, 2014'
p3097
sg5
S'Philadelphia'
p3098
sg7
S'Colorado'
p3099
sg9
S'9:00 PM ET'
p3100
sa(dp3101
g3
S'Thu Jan 2, 2014'
p3102
sg5
S'Columbus'
p3103
sg7
S'Phoenix'
p3104
sg9
S'9:00 PM ET'
p3105
sa(dp3106
g3
S'Thu Jan 2, 2014'
p3107
sg5
S'Edmonton'
p3108
sg7
S'San Jose'
p3109
sg9
S'10:30 PM ET'
p3110
sa(dp3111
g3
S'Fri Jan 3, 2014'
p3112
sg5
S'Chicago'
p3113
sg7
S'New Jersey'
p3114
sg9
S'7:00 PM ET'
p3115
sa(dp3116
g3
S'Fri Jan 3, 2014'
p3117
sg5
S'NY Rangers'
p3118
sg7
S'Pittsburgh'
p3119
sg9
S'7:00 PM ET'
p3120
sa(dp3121
g3
S'Fri Jan 3, 2014'
p3122
sg5
S'Tampa Bay'
p3123
sg7
S'Calgary'
p3124
sg9
S'9:00 PM ET'
p3125
sa(dp3126
g3
S'Fri Jan 3, 2014'
p3127
sg5
S'Edmonton'
p3128
sg7
S'Anaheim'
p3129
sg9
S'10:00 PM ET'
p3130
sa(dp3131
g3
S'Sat Jan 4, 2014'
p3132
sg5
S'Winnipeg'
p3133
sg7
S'Boston'
p3134
sg9
S'1:00 PM ET'
p3135
sa(dp3136
g3
S'Sat Jan 4, 2014'
p3137
sg5
S'San Jose'
p3138
sg7
S'Colorado'
p3139
sg9
S'3:00 PM ET'
p3140
sa(dp3141
g3
S'Sat Jan 4, 2014'
p3142
sg5
S'New Jersey'
p3143
sg7
S'Buffalo'
p3144
sg9
S'7:00 PM ET'
p3145
sa(dp3146
g3
S'Sat Jan 4, 2014'
p3147
sg5
S'NY Rangers'
p3148
sg7
S'Toronto'
p3149
sg9
S'7:00 PM ET'
p3150
sa(dp3151
g3
S'Sat Jan 4, 2014'
p3152
sg5
S'Ottawa'
p3153
sg7
S'Montr\xc3\xa9al'
p3154
sg9
S'7:00 PM ET'
p3155
sa(dp3156
g3
S'Sat Jan 4, 2014'
p3157
sg5
S'Nashville'
p3158
sg7
S'Florida'
p3159
sg9
S'7:00 PM ET'
p3160
sa(dp3161
g3
S'Sat Jan 4, 2014'
p3162
sg5
S'Carolina'
p3163
sg7
S'NY Islanders'
p3164
sg9
S'7:00 PM ET'
p3165
sa(dp3166
g3
S'Sat Jan 4, 2014'
p3167
sg5
S'Columbus'
p3168
sg7
S'St. Louis'
p3169
sg9
S'8:00 PM ET'
p3170
sa(dp3171
g3
S'Sat Jan 4, 2014'
p3172
sg5
S'Detroit'
p3173
sg7
S'Dallas'
p3174
sg9
S'8:00 PM ET'
p3175
sa(dp3176
g3
S'Sat Jan 4, 2014'
p3177
sg5
S'Washington'
p3178
sg7
S'Minnesota'
p3179
sg9
S'8:00 PM ET'
p3180
sa(dp3181
g3
S'Sat Jan 4, 2014'
p3182
sg5
S'Philadelphia'
p3183
sg7
S'Phoenix'
p3184
sg9
S'8:00 PM ET'
p3185
sa(dp3186
g3
S'Sat Jan 4, 2014'
p3187
sg5
S'Vancouver'
p3188
sg7
S'Los Angeles'
p3189
sg9
S'10:00 PM ET'
p3190
sa(dp3191
g3
S'Sun Jan 5, 2014'
p3192
sg5
S'Winnipeg'
p3193
sg7
S'Pittsburgh'
p3194
sg9
S'1:00 PM ET'
p3195
sa(dp3196
g3
S'Sun Jan 5, 2014'
p3197
sg5
S'Nashville'
p3198
sg7
S'Carolina'
p3199
sg9
S'7:00 PM ET'
p3200
sa(dp3201
g3
S'Sun Jan 5, 2014'
p3202
sg5
S'San Jose'
p3203
sg7
S'Chicago'
p3204
sg9
S'8:00 PM ET'
p3205
sa(dp3206
g3
S'Sun Jan 5, 2014'
p3207
sg5
S'Tampa Bay'
p3208
sg7
S'Edmonton'
p3209
sg9
S'8:00 PM ET'
p3210
sa(dp3211
g3
S'Sun Jan 5, 2014'
p3212
sg5
S'Vancouver'
p3213
sg7
S'Anaheim'
p3214
sg9
S'8:00 PM ET'
p3215
sa(dp3216
g3
S'Mon Jan 6, 2014'
p3217
sg5
S'Dallas'
p3218
sg7
S'NY Islanders'
p3219
sg9
S'7:00 PM ET'
p3220
sa(dp3221
g3
S'Mon Jan 6, 2014'
p3222
sg5
S'Columbus'
p3223
sg7
S'NY Rangers'
p3224
sg9
S'7:00 PM ET'
p3225
sa(dp3226
g3
S'Mon Jan 6, 2014'
p3227
sg5
S'Florida'
p3228
sg7
S'Montr\xc3\xa9al'
p3229
sg9
S'7:30 PM ET'
p3230
sa(dp3231
g3
S'Mon Jan 6, 2014'
p3232
sg5
S'Calgary'
p3233
sg7
S'Colorado'
p3234
sg9
S'9:00 PM ET'
p3235
sa(dp3236
g3
S'Tue Jan 7, 2014'
p3237
sg5
S'Carolina'
p3238
sg7
S'Buffalo'
p3239
sg9
S'7:00 PM ET'
p3240
sa(dp3241
g3
S'Tue Jan 7, 2014'
p3242
sg5
S'NY Islanders'
p3243
sg7
S'Toronto'
p3244
sg9
S'7:00 PM ET'
p3245
sa(dp3246
g3
S'Tue Jan 7, 2014'
p3247
sg5
S'Philadelphia'
p3248
sg7
S'New Jersey'
p3249
sg9
S'7:30 PM ET'
p3250
sa(dp3251
g3
S'Tue Jan 7, 2014'
p3252
sg5
S'San Jose'
p3253
sg7
S'Nashville'
p3254
sg9
S'8:00 PM ET'
p3255
sa(dp3256
g3
S'Tue Jan 7, 2014'
p3257
sg5
S'Tampa Bay'
p3258
sg7
S'Winnipeg'
p3259
sg9
S'8:00 PM ET'
p3260
sa(dp3261
g3
S'Tue Jan 7, 2014'
p3262
sg5
S'Calgary'
p3263
sg7
S'Phoenix'
p3264
sg9
S'9:00 PM ET'
p3265
sa(dp3266
g3
S'Tue Jan 7, 2014'
p3267
sg5
S'St. Louis'
p3268
sg7
S'Edmonton'
p3269
sg9
S'9:30 PM ET'
p3270
sa(dp3271
g3
S'Tue Jan 7, 2014'
p3272
sg5
S'Pittsburgh'
p3273
sg7
S'Vancouver'
p3274
sg9
S'10:00 PM ET'
p3275
sa(dp3276
g3
S'Tue Jan 7, 2014'
p3277
sg5
S'Boston'
p3278
sg7
S'Anaheim'
p3279
sg9
S'10:00 PM ET'
p3280
sa(dp3281
g3
S'Tue Jan 7, 2014'
p3282
sg5
S'Minnesota'
p3283
sg7
S'Los Angeles'
p3284
sg9
S'10:30 PM ET'
p3285
sa(dp3286
g3
S'Wed Jan 8, 2014'
p3287
sg5
S'Montr\xc3\xa9al'
p3288
sg7
S'Philadelphia'
p3289
sg9
S'7:30 PM ET'
p3290
sa(dp3291
g3
S'Wed Jan 8, 2014'
p3292
sg5
S'NY Rangers'
p3293
sg7
S'Chicago'
p3294
sg9
S'8:00 PM ET'
p3295
sa(dp3296
g3
S'Wed Jan 8, 2014'
p3297
sg5
S'Ottawa'
p3298
sg7
S'Colorado'
p3299
sg9
S'9:30 PM ET'
p3300
sa(dp3301
g3
S'Thu Jan 9, 2014'
p3302
sg5
S'Florida'
p3303
sg7
S'Buffalo'
p3304
sg9
S'7:00 PM ET'
p3305
sa(dp3306
g3
S'Thu Jan 9, 2014'
p3307
sg5
S'Dallas'
p3308
sg7
S'New Jersey'
p3309
sg9
S'7:00 PM ET'
p3310
sa(dp3311
g3
S'Thu Jan 9, 2014'
p3312
sg5
S'Toronto'
p3313
sg7
S'Carolina'
p3314
sg9
S'7:00 PM ET'
p3315
sa(dp3316
g3
S'Thu Jan 9, 2014'
p3317
sg5
S'Washington'
p3318
sg7
S'Tampa Bay'
p3319
sg9
S'7:30 PM ET'
p3320
sa(dp3321
g3
S'Thu Jan 9, 2014'
p3322
sg5
S'Anaheim'
p3323
sg7
S'Nashville'
p3324
sg9
S'8:00 PM ET'
p3325
sa(dp3326
g3
S'Thu Jan 9, 2014'
p3327
sg5
S'St. Louis'
p3328
sg7
S'Calgary'
p3329
sg9
S'9:00 PM ET'
p3330
sa(dp3331
g3
S'Thu Jan 9, 2014'
p3332
sg5
S'Minnesota'
p3333
sg7
S'Phoenix'
p3334
sg9
S'9:00 PM ET'
p3335
sa(dp3336
g3
S'Thu Jan 9, 2014'
p3337
sg5
S'Boston'
p3338
sg7
S'Los Angeles'
p3339
sg9
S'10:30 PM ET'
p3340
sa(dp3341
g3
S'Thu Jan 9, 2014'
p3342
sg5
S'Detroit'
p3343
sg7
S'San Jose'
p3344
sg9
S'10:30 PM ET'
p3345
sa(dp3346
g3
S'Fri Jan 10, 2014'
p3347
sg5
S'Dallas'
p3348
sg7
S'NY Rangers'
p3349
sg9
S'7:00 PM ET'
p3350
sa(dp3351
g3
S'Fri Jan 10, 2014'
p3352
sg5
S'Toronto'
p3353
sg7
S'Washington'
p3354
sg9
S'7:00 PM ET'
p3355
sa(dp3356
g3
S'Fri Jan 10, 2014'
p3357
sg5
S'Carolina'
p3358
sg7
S'Columbus'
p3359
sg9
S'7:00 PM ET'
p3360
sa(dp3361
g3
S'Fri Jan 10, 2014'
p3362
sg5
S'NY Islanders'
p3363
sg7
S'Colorado'
p3364
sg9
S'9:00 PM ET'
p3365
sa(dp3366
g3
S'Fri Jan 10, 2014'
p3367
sg5
S'Pittsburgh'
p3368
sg7
S'Edmonton'
p3369
sg9
S'10:00 PM ET'
p3370
sa(dp3371
g3
S'Fri Jan 10, 2014'
p3372
sg5
S'St. Louis'
p3373
sg7
S'Vancouver'
p3374
sg9
S'10:00 PM ET'
p3375
sa(dp3376
g3
S'Sat Jan 11, 2014'
p3377
sg5
S'Tampa Bay'
p3378
sg7
S'Philadelphia'
p3379
sg9
S'1:00 PM ET'
p3380
sa(dp3381
g3
S'Sat Jan 11, 2014'
p3382
sg5
S'Chicago'
p3383
sg7
S'Montr\xc3\xa9al'
p3384
sg9
S'7:00 PM ET'
p3385
sa(dp3386
g3
S'Sat Jan 11, 2014'
p3387
sg5
S'Florida'
p3388
sg7
S'New Jersey'
p3389
sg9
S'7:00 PM ET'
p3390
sa(dp3391
g3
S'Sat Jan 11, 2014'
p3392
sg5
S'Ottawa'
p3393
sg7
S'Nashville'
p3394
sg9
S'7:00 PM ET'
p3395
sa(dp3396
g3
S'Sat Jan 11, 2014'
p3397
sg5
S'Columbus'
p3398
sg7
S'Winnipeg'
p3399
sg9
S'7:00 PM ET'
p3400
sa(dp3401
g3
S'Sat Jan 11, 2014'
p3402
sg5
S'Colorado'
p3403
sg7
S'Minnesota'
p3404
sg9
S'8:00 PM ET'
p3405
sa(dp3406
g3
S'Sat Jan 11, 2014'
p3407
sg5
S'Anaheim'
p3408
sg7
S'Phoenix'
p3409
sg9
S'8:00 PM ET'
p3410
sa(dp3411
g3
S'Sat Jan 11, 2014'
p3412
sg5
S'Pittsburgh'
p3413
sg7
S'Calgary'
p3414
sg9
S'10:00 PM ET'
p3415
sa(dp3416
g3
S'Sat Jan 11, 2014'
p3417
sg5
S'Detroit'
p3418
sg7
S'Los Angeles'
p3419
sg9
S'10:30 PM ET'
p3420
sa(dp3421
g3
S'Sat Jan 11, 2014'
p3422
sg5
S'Boston'
p3423
sg7
S'San Jose'
p3424
sg9
S'10:30 PM ET'
p3425
sa(dp3426
g3
S'Sun Jan 12, 2014'
p3427
sg5
S'Buffalo'
p3428
sg7
S'Washington'
p3429
sg9
S'3:00 PM ET'
p3430
sa(dp3431
g3
S'Sun Jan 12, 2014'
p3432
sg5
S'NY Islanders'
p3433
sg7
S'Dallas'
p3434
sg9
S'6:00 PM ET'
p3435
sa(dp3436
g3
S'Sun Jan 12, 2014'
p3437
sg5
S'New Jersey'
p3438
sg7
S'Toronto'
p3439
sg9
S'7:00 PM ET'
p3440
sa(dp3441
g3
S'Sun Jan 12, 2014'
p3442
sg5
S'Philadelphia'
p3443
sg7
S'NY Rangers'
p3444
sg9
S'7:00 PM ET'
p3445
sa(dp3446
g3
S'Sun Jan 12, 2014'
p3447
sg5
S'Edmonton'
p3448
sg7
S'Chicago'
p3449
sg9
S'7:00 PM ET'
p3450
sa(dp3451
g3
S'Sun Jan 12, 2014'
p3452
sg5
S'Minnesota'
p3453
sg7
S'Nashville'
p3454
sg9
S'7:00 PM ET'
p3455
sa(dp3456
g3
S'Sun Jan 12, 2014'
p3457
sg5
S'Detroit'
p3458
sg7
S'Anaheim'
p3459
sg9
S'8:00 PM ET'
p3460
sa(dp3461
g3
S'Mon Jan 13, 2014'
p3462
sg5
S'Calgary'
p3463
sg7
S'Carolina'
p3464
sg9
S'7:00 PM ET'
p3465
sa(dp3466
g3
S'Mon Jan 13, 2014'
p3467
sg5
S'Tampa Bay'
p3468
sg7
S'Columbus'
p3469
sg9
S'7:00 PM ET'
p3470
sa(dp3471
g3
S'Mon Jan 13, 2014'
p3472
sg5
S'Phoenix'
p3473
sg7
S'Winnipeg'
p3474
sg9
S'8:00 PM ET'
p3475
sa(dp3476
g3
S'Mon Jan 13, 2014'
p3477
sg5
S'Vancouver'
p3478
sg7
S'Los Angeles'
p3479
sg9
S'10:30 PM ET'
p3480
sa(dp3481
g3
S'Tue Jan 14, 2014'
p3482
sg5
S'Toronto'
p3483
sg7
S'Boston'
p3484
sg9
S'7:00 PM ET'
p3485
sa(dp3486
g3
S'Tue Jan 14, 2014'
p3487
sg5
S'Tampa Bay'
p3488
sg7
S'NY Rangers'
p3489
sg9
S'7:00 PM ET'
p3490
sa(dp3491
g3
S'Tue Jan 14, 2014'
p3492
sg5
S'San Jose'
p3493
sg7
S'Washington'
p3494
sg9
S'7:00 PM ET'
p3495
sa(dp3496
g3
S'Tue Jan 14, 2014'
p3497
sg5
S'Philadelphia'
p3498
sg7
S'Buffalo'
p3499
sg9
S'7:30 PM ET'
p3500
sa(dp3501
g3
S'Tue Jan 14, 2014'
p3502
sg5
S'New Jersey'
p3503
sg7
S'Montr\xc3\xa9al'
p3504
sg9
S'7:30 PM ET'
p3505
sa(dp3506
g3
S'Tue Jan 14, 2014'
p3507
sg5
S'NY Islanders'
p3508
sg7
S'Florida'
p3509
sg9
S'7:30 PM ET'
p3510
sa(dp3511
g3
S'Tue Jan 14, 2014'
p3512
sg5
S'Colorado'
p3513
sg7
S'Chicago'
p3514
sg9
S'8:00 PM ET'
p3515
sa(dp3516
g3
S'Tue Jan 14, 2014'
p3517
sg5
S'Phoenix'
p3518
sg7
S'St. Louis'
p3519
sg9
S'8:00 PM ET'
p3520
sa(dp3521
g3
S'Tue Jan 14, 2014'
p3522
sg5
S'Calgary'
p3523
sg7
S'Nashville'
p3524
sg9
S'8:00 PM ET'
p3525
sa(dp3526
g3
S'Tue Jan 14, 2014'
p3527
sg5
S'Ottawa'
p3528
sg7
S'Minnesota'
p3529
sg9
S'8:00 PM ET'
p3530
sa(dp3531
g3
S'Tue Jan 14, 2014'
p3532
sg5
S'Edmonton'
p3533
sg7
S'Dallas'
p3534
sg9
S'8:30 PM ET'
p3535
sa(dp3536
g3
S'Wed Jan 15, 2014'
p3537
sg5
S'Buffalo'
p3538
sg7
S'Toronto'
p3539
sg9
S'7:30 PM ET'
p3540
sa(dp3541
g3
S'Wed Jan 15, 2014'
p3542
sg5
S'Washington'
p3543
sg7
S'Pittsburgh'
p3544
sg9
S'8:00 PM ET'
p3545
sa(dp3546
g3
S'Wed Jan 15, 2014'
p3547
sg5
S'Vancouver'
p3548
sg7
S'Anaheim'
p3549
sg9
S'10:30 PM ET'
p3550
sa(dp3551
g3
S'Thu Jan 16, 2014'
p3552
sg5
S'Detroit'
p3553
sg7
S'NY Rangers'
p3554
sg9
S'7:00 PM ET'
p3555
sa(dp3556
g3
S'Thu Jan 16, 2014'
p3557
sg5
S'Nashville'
p3558
sg7
S'Philadelphia'
p3559
sg9
S'7:00 PM ET'
p3560
sa(dp3561
g3
S'Thu Jan 16, 2014'
p3562
sg5
S'Montr\xc3\xa9al'
p3563
sg7
S'Ottawa'
p3564
sg9
S'7:30 PM ET'
p3565
sa(dp3566
g3
S'Thu Jan 16, 2014'
p3567
sg5
S'NY Islanders'
p3568
sg7
S'Tampa Bay'
p3569
sg9
S'7:30 PM ET'
p3570
sa(dp3571
g3
S'Thu Jan 16, 2014'
p3572
sg5
S'San Jose'
p3573
sg7
S'Florida'
p3574
sg9
S'7:30 PM ET'
p3575
sa(dp3576
g3
S'Thu Jan 16, 2014'
p3577
sg5
S'Los Angeles'
p3578
sg7
S'St. Louis'
p3579
sg9
S'8:00 PM ET'
p3580
sa(dp3581
g3
S'Thu Jan 16, 2014'
p3582
sg5
S'Edmonton'
p3583
sg7
S'Minnesota'
p3584
sg9
S'8:00 PM ET'
p3585
sa(dp3586
g3
S'Thu Jan 16, 2014'
p3587
sg5
S'Boston'
p3588
sg7
S'Dallas'
p3589
sg9
S'8:30 PM ET'
p3590
sa(dp3591
g3
S'Thu Jan 16, 2014'
p3592
sg5
S'New Jersey'
p3593
sg7
S'Colorado'
p3594
sg9
S'9:00 PM ET'
p3595
sa(dp3596
g3
S'Thu Jan 16, 2014'
p3597
sg5
S'Winnipeg'
p3598
sg7
S'Calgary'
p3599
sg9
S'9:00 PM ET'
p3600
sa(dp3601
g3
S'Thu Jan 16, 2014'
p3602
sg5
S'Vancouver'
p3603
sg7
S'Phoenix'
p3604
sg9
S'9:00 PM ET'
p3605
sa(dp3606
g3
S'Fri Jan 17, 2014'
p3607
sg5
S'Washington'
p3608
sg7
S'Columbus'
p3609
sg9
S'7:00 PM ET'
p3610
sa(dp3611
g3
S'Fri Jan 17, 2014'
p3612
sg5
S'Anaheim'
p3613
sg7
S'Chicago'
p3614
sg9
S'8:00 PM ET'
p3615
sa(dp3616
g3
S'Sat Jan 18, 2014'
p3617
sg5
S'NY Rangers'
p3618
sg7
S'Ottawa'
p3619
sg9
S'2:00 PM ET'
p3620
sa(dp3621
g3
S'Sat Jan 18, 2014'
p3622
sg5
S'San Jose'
p3623
sg7
S'Tampa Bay'
p3624
sg9
S'2:00 PM ET'
p3625
sa(dp3626
g3
S'Sat Jan 18, 2014'
p3627
sg5
S'Edmonton'
p3628
sg7
S'Winnipeg'
p3629
sg9
S'2:00 PM ET'
p3630
sa(dp3631
g3
S'Sat Jan 18, 2014'
p3632
sg5
S'Columbus'
p3633
sg7
S'Buffalo'
p3634
sg9
S'7:00 PM ET'
p3635
sa(dp3636
g3
S'Sat Jan 18, 2014'
p3637
sg5
S'Montr\xc3\xa9al'
p3638
sg7
S'Toronto'
p3639
sg9
S'7:00 PM ET'
p3640
sa(dp3641
g3
S'Sat Jan 18, 2014'
p3642
sg5
S'Los Angeles'
p3643
sg7
S'Detroit'
p3644
sg9
S'7:00 PM ET'
p3645
sa(dp3646
g3
S'Sat Jan 18, 2014'
p3647
sg5
S'NY Islanders'
p3648
sg7
S'Philadelphia'
p3649
sg9
S'7:00 PM ET'
p3650
sa(dp3651
g3
S'Sat Jan 18, 2014'
p3652
sg5
S'Florida'
p3653
sg7
S'Carolina'
p3654
sg9
S'7:00 PM ET'
p3655
sa(dp3656
g3
S'Sat Jan 18, 2014'
p3657
sg5
S'Anaheim'
p3658
sg7
S'St. Louis'
p3659
sg9
S'8:00 PM ET'
p3660
sa(dp3661
g3
S'Sat Jan 18, 2014'
p3662
sg5
S'Colorado'
p3663
sg7
S'Nashville'
p3664
sg9
S'8:00 PM ET'
p3665
sa(dp3666
g3
S'Sat Jan 18, 2014'
p3667
sg5
S'New Jersey'
p3668
sg7
S'Phoenix'
p3669
sg9
S'8:00 PM ET'
p3670
sa(dp3671
g3
S'Sat Jan 18, 2014'
p3672
sg5
S'Dallas'
p3673
sg7
S'Minnesota'
p3674
sg9
S'9:00 PM ET'
p3675
sa(dp3676
g3
S'Sat Jan 18, 2014'
p3677
sg5
S'Calgary'
p3678
sg7
S'Vancouver'
p3679
sg9
S'10:00 PM ET'
p3680
sa(dp3681
g3
S'Sun Jan 19, 2014'
p3682
sg5
S'Boston'
p3683
sg7
S'Chicago'
p3684
sg9
S'3:00 PM ET'
p3685
sa(dp3686
g3
S'Sun Jan 19, 2014'
p3687
sg5
S'Tampa Bay'
p3688
sg7
S'Carolina'
p3689
sg9
S'5:00 PM ET'
p3690
sa(dp3691
g3
S'Sun Jan 19, 2014'
p3692
sg5
S'Washington'
p3693
sg7
S'NY Rangers'
p3694
sg9
S'7:30 PM ET'
p3695
sa(dp3696
g3
S'Mon Jan 20, 2014'
p3697
sg5
S'Los Angeles'
p3698
sg7
S'Boston'
p3699
sg9
S'1:00 PM ET'
p3700
sa(dp3701
g3
S'Mon Jan 20, 2014'
p3702
sg5
S'Philadelphia'
p3703
sg7
S'NY Islanders'
p3704
sg9
S'1:00 PM ET'
p3705
sa(dp3706
g3
S'Mon Jan 20, 2014'
p3707
sg5
S'Florida'
p3708
sg7
S'Pittsburgh'
p3709
sg9
S'7:00 PM ET'
p3710
sa(dp3711
g3
S'Mon Jan 20, 2014'
p3712
sg5
S'St. Louis'
p3713
sg7
S'Detroit'
p3714
sg9
S'7:30 PM ET'
p3715
sa(dp3716
g3
S'Mon Jan 20, 2014'
p3717
sg5
S'Dallas'
p3718
sg7
S'Nashville'
p3719
sg9
S'8:00 PM ET'
p3720
sa(dp3721
g3
S'Mon Jan 20, 2014'
p3722
sg5
S'Toronto'
p3723
sg7
S'Phoenix'
p3724
sg9
S'8:00 PM ET'
p3725
sa(dp3726
g3
S'Mon Jan 20, 2014'
p3727
sg5
S'Calgary'
p3728
sg7
S'San Jose'
p3729
sg9
S'10:30 PM ET'
p3730
sa(dp3731
g3
S'Tue Jan 21, 2014'
p3732
sg5
S'Florida'
p3733
sg7
S'Buffalo'
p3734
sg9
S'7:00 PM ET'
p3735
sa(dp3736
g3
S'Tue Jan 21, 2014'
p3737
sg5
S'St. Louis'
p3738
sg7
S'New Jersey'
p3739
sg9
S'7:00 PM ET'
p3740
sa(dp3741
g3
S'Tue Jan 21, 2014'
p3742
sg5
S'NY Islanders'
p3743
sg7
S'NY Rangers'
p3744
sg9
S'7:00 PM ET'
p3745
sa(dp3746
g3
S'Tue Jan 21, 2014'
p3747
sg5
S'Carolina'
p3748
sg7
S'Philadelphia'
p3749
sg9
S'7:00 PM ET'
p3750
sa(dp3751
g3
S'Tue Jan 21, 2014'
p3752
sg5
S'Ottawa'
p3753
sg7
S'Washington'
p3754
sg9
S'7:00 PM ET'
p3755
sa(dp3756
g3
S'Tue Jan 21, 2014'
p3757
sg5
S'Los Angeles'
p3758
sg7
S'Columbus'
p3759
sg9
S'7:00 PM ET'
p3760
sa(dp3761
g3
S'Tue Jan 21, 2014'
p3762
sg5
S'Minnesota'
p3763
sg7
S'Dallas'
p3764
sg9
S'8:00 PM ET'
p3765
sa(dp3766
g3
S'Tue Jan 21, 2014'
p3767
sg5
S'Toronto'
p3768
sg7
S'Colorado'
p3769
sg9
S'9:00 PM ET'
p3770
sa(dp3771
g3
S'Tue Jan 21, 2014'
p3772
sg5
S'Vancouver'
p3773
sg7
S'Edmonton'
p3774
sg9
S'9:30 PM ET'
p3775
sa(dp3776
g3
S'Tue Jan 21, 2014'
p3777
sg5
S'Winnipeg'
p3778
sg7
S'Anaheim'
p3779
sg9
S'10:00 PM ET'
p3780
sa(dp3781
g3
S'Wed Jan 22, 2014'
p3782
sg5
S'Montr\xc3\xa9al'
p3783
sg7
S'Pittsburgh'
p3784
sg9
S'7:00 PM ET'
p3785
sa(dp3786
g3
S'Wed Jan 22, 2014'
p3787
sg5
S'Chicago'
p3788
sg7
S'Detroit'
p3789
sg9
S'8:00 PM ET'
p3790
sa(dp3791
g3
S'Wed Jan 22, 2014'
p3792
sg5
S'Phoenix'
p3793
sg7
S'Calgary'
p3794
sg9
S'9:30 PM ET'
p3795
sa(dp3796
g3
S'Thu Jan 23, 2014'
p3797
sg5
S'Carolina'
p3798
sg7
S'Buffalo'
p3799
sg9
S'7:00 PM ET'
p3800
sa(dp3801
g3
S'Thu Jan 23, 2014'
p3802
sg5
S'St. Louis'
p3803
sg7
S'NY Rangers'
p3804
sg9
S'7:00 PM ET'
p3805
sa(dp3806
g3
S'Thu Jan 23, 2014'
p3807
sg5
S'Philadelphia'
p3808
sg7
S'Columbus'
p3809
sg9
S'7:00 PM ET'
p3810
sa(dp3811
g3
S'Thu Jan 23, 2014'
p3812
sg5
S'Ottawa'
p3813
sg7
S'Tampa Bay'
p3814
sg9
S'7:30 PM ET'
p3815
sa(dp3816
g3
S'Thu Jan 23, 2014'
p3817
sg5
S'Pittsburgh'
p3818
sg7
S'NY Islanders'
p3819
sg9
S'7:30 PM ET'
p3820
sa(dp3821
g3
S'Thu Jan 23, 2014'
p3822
sg5
S'Chicago'
p3823
sg7
S'Minnesota'
p3824
sg9
S'8:00 PM ET'
p3825
sa(dp3826
g3
S'Thu Jan 23, 2014'
p3827
sg5
S'Toronto'
p3828
sg7
S'Dallas'
p3829
sg9
S'8:00 PM ET'
p3830
sa(dp3831
g3
S'Thu Jan 23, 2014'
p3832
sg5
S'Nashville'
p3833
sg7
S'Vancouver'
p3834
sg9
S'10:00 PM ET'
p3835
sa(dp3836
g3
S'Thu Jan 23, 2014'
p3837
sg5
S'Los Angeles'
p3838
sg7
S'Anaheim'
p3839
sg9
S'10:00 PM ET'
p3840
sa(dp3841
g3
S'Thu Jan 23, 2014'
p3842
sg5
S'Winnipeg'
p3843
sg7
S'San Jose'
p3844
sg9
S'10:30 PM ET'
p3845
sa(dp3846
g3
S'Fri Jan 24, 2014'
p3847
sg5
S'Washington'
p3848
sg7
S'New Jersey'
p3849
sg9
S'7:00 PM ET'
p3850
sa(dp3851
g3
S'Fri Jan 24, 2014'
p3852
sg5
S'Ottawa'
p3853
sg7
S'Carolina'
p3854
sg9
S'7:00 PM ET'
p3855
sa(dp3856
g3
S'Fri Jan 24, 2014'
p3857
sg5
S'Montr\xc3\xa9al'
p3858
sg7
S'Detroit'
p3859
sg9
S'7:30 PM ET'
p3860
sa(dp3861
g3
S'Fri Jan 24, 2014'
p3862
sg5
S'Colorado'
p3863
sg7
S'Florida'
p3864
sg9
S'7:30 PM ET'
p3865
sa(dp3866
g3
S'Fri Jan 24, 2014'
p3867
sg5
S'Nashville'
p3868
sg7
S'Calgary'
p3869
sg9
S'9:00 PM ET'
p3870
sa(dp3871
g3
S'Fri Jan 24, 2014'
p3872
sg5
S'Phoenix'
p3873
sg7
S'Edmonton'
p3874
sg9
S'9:30 PM ET'
p3875
sa(dp3876
g3
S'Sat Jan 25, 2014'
p3877
sg5
S'St. Louis'
p3878
sg7
S'NY Islanders'
p3879
sg9
S'1:00 PM ET'
p3880
sa(dp3881
g3
S'Sat Jan 25, 2014'
p3882
sg5
S'Boston'
p3883
sg7
S'Philadelphia'
p3884
sg9
S'1:00 PM ET'
p3885
sa(dp3886
g3
S'Sat Jan 25, 2014'
p3887
sg5
S'Washington'
p3888
sg7
S'Montr\xc3\xa9al'
p3889
sg9
S'7:00 PM ET'
p3890
sa(dp3891
g3
S'Sat Jan 25, 2014'
p3892
sg5
S'Colorado'
p3893
sg7
S'Tampa Bay'
p3894
sg9
S'7:00 PM ET'
p3895
sa(dp3896
g3
S'Sat Jan 25, 2014'
p3897
sg5
S'Buffalo'
p3898
sg7
S'Columbus'
p3899
sg9
S'7:00 PM ET'
p3900
sa(dp3901
g3
S'Sat Jan 25, 2014'
p3902
sg5
S'Toronto'
p3903
sg7
S'Winnipeg'
p3904
sg9
S'7:00 PM ET'
p3905
sa(dp3906
g3
S'Sat Jan 25, 2014'
p3907
sg5
S'Pittsburgh'
p3908
sg7
S'Dallas'
p3909
sg9
S'8:00 PM ET'
p3910
sa(dp3911
g3
S'Sat Jan 25, 2014'
p3912
sg5
S'Anaheim'
p3913
sg7
S'Los Angeles'
p3914
sg9
S'9:30 PM ET'
p3915
sa(dp3916
g3
S'Sat Jan 25, 2014'
p3917
sg5
S'Minnesota'
p3918
sg7
S'San Jose'
p3919
sg9
S'10:30 PM ET'
p3920
sa(dp3921
g3
S'Sun Jan 26, 2014'
p3922
sg5
S'NY Rangers'
p3923
sg7
S'New Jersey'
p3924
sg9
S'12:30 PM ET'
p3925
sa(dp3926
g3
S'Sun Jan 26, 2014'
p3927
sg5
S'Florida'
p3928
sg7
S'Detroit'
p3929
sg9
S'5:00 PM ET'
p3930
sa(dp3931
g3
S'Sun Jan 26, 2014'
p3932
sg5
S'Winnipeg'
p3933
sg7
S'Chicago'
p3934
sg9
S'7:00 PM ET'
p3935
sa(dp3936
g3
S'Sun Jan 26, 2014'
p3937
sg5
S'Nashville'
p3938
sg7
S'Edmonton'
p3939
sg9
S'8:00 PM ET'
p3940
sa(dp3941
g3
S'Sun Jan 26, 2014'
p3942
sg5
S'Phoenix'
p3943
sg7
S'Vancouver'
p3944
sg9
S'8:00 PM ET'
p3945
sa(dp3946
g3
S'Mon Jan 27, 2014'
p3947
sg5
S'Boston'
p3948
sg7
S'NY Islanders'
p3949
sg9
S'7:00 PM ET'
p3950
sa(dp3951
g3
S'Mon Jan 27, 2014'
p3952
sg5
S'Columbus'
p3953
sg7
S'Carolina'
p3954
sg9
S'7:00 PM ET'
p3955
sa(dp3956
g3
S'Mon Jan 27, 2014'
p3957
sg5
S'Buffalo'
p3958
sg7
S'Pittsburgh'
p3959
sg9
S'7:30 PM ET'
p3960
sa(dp3961
g3
S'Mon Jan 27, 2014'
p3962
sg5
S'Colorado'
p3963
sg7
S'Dallas'
p3964
sg9
S'8:30 PM ET'
p3965
sa(dp3966
g3
S'Mon Jan 27, 2014'
p3967
sg5
S'Edmonton'
p3968
sg7
S'Vancouver'
p3969
sg9
S'10:00 PM ET'
p3970
sa(dp3971
g3
S'Mon Jan 27, 2014'
p3972
sg5
S'Los Angeles'
p3973
sg7
S'San Jose'
p3974
sg9
S'10:00 PM ET'
p3975
sa(dp3976
g3
S'Tue Jan 28, 2014'
p3977
sg5
S'Florida'
p3978
sg7
S'Boston'
p3979
sg9
S'7:00 PM ET'
p3980
sa(dp3981
g3
S'Tue Jan 28, 2014'
p3982
sg5
S'Tampa Bay'
p3983
sg7
S'Toronto'
p3984
sg9
S'7:00 PM ET'
p3985
sa(dp3986
g3
S'Tue Jan 28, 2014'
p3987
sg5
S'Detroit'
p3988
sg7
S'Philadelphia'
p3989
sg9
S'7:00 PM ET'
p3990
sa(dp3991
g3
S'Tue Jan 28, 2014'
p3992
sg5
S'Ottawa'
p3993
sg7
S'Columbus'
p3994
sg9
S'7:00 PM ET'
p3995
sa(dp3996
g3
S'Tue Jan 28, 2014'
p3997
sg5
S'Washington'
p3998
sg7
S'Buffalo'
p3999
sg9
S'7:30 PM ET'
p4000
sa(dp4001
g3
S'Tue Jan 28, 2014'
p4002
sg5
S'Carolina'
p4003
sg7
S'Montr\xc3\xa9al'
p4004
sg9
S'7:30 PM ET'
p4005
sa(dp4006
g3
S'Tue Jan 28, 2014'
p4007
sg5
S'New Jersey'
p4008
sg7
S'St. Louis'
p4009
sg9
S'8:00 PM ET'
p4010
sa(dp4011
g3
S'Tue Jan 28, 2014'
p4012
sg5
S'Nashville'
p4013
sg7
S'Winnipeg'
p4014
sg9
S'8:00 PM ET'
p4015
sa(dp4016
g3
S'Tue Jan 28, 2014'
p4017
sg5
S'Los Angeles'
p4018
sg7
S'Phoenix'
p4019
sg9
S'9:00 PM ET'
p4020
sa(dp4021
g3
S'Tue Jan 28, 2014'
p4022
sg5
S'Chicago'
p4023
sg7
S'Calgary'
p4024
sg9
S'9:30 PM ET'
p4025
sa(dp4026
g3
S'Tue Jan 28, 2014'
p4027
sg5
S'Minnesota'
p4028
sg7
S'Anaheim'
p4029
sg9
S'10:00 PM ET'
p4030
sa(dp4031
g3
S'Wed Jan 29, 2014'
p4032
sg5
S'NY Rangers'
p4033
sg7
S'NY Islanders'
p4034
sg9
S'7:30 PM ET'
p4035
sa(dp4036
g3
S'Wed Jan 29, 2014'
p4037
sg5
S'San Jose'
p4038
sg7
S'Edmonton'
p4039
sg9
S'9:30 PM ET'
p4040
sa(dp4041
g3
S'Wed Jan 29, 2014'
p4042
sg5
S'Chicago'
p4043
sg7
S'Vancouver'
p4044
sg9
S'10:30 PM ET'
p4045
sa(dp4046
g3
S'Thu Jan 30, 2014'
p4047
sg5
S'Montr\xc3\xa9al'
p4048
sg7
S'Boston'
p4049
sg9
S'7:00 PM ET'
p4050
sa(dp4051
g3
S'Thu Jan 30, 2014'
p4052
sg5
S'Florida'
p4053
sg7
S'Toronto'
p4054
sg9
S'7:00 PM ET'
p4055
sa(dp4056
g3
S'Thu Jan 30, 2014'
p4057
sg5
S'Washington'
p4058
sg7
S'Columbus'
p4059
sg9
S'7:00 PM ET'
p4060
sa(dp4061
g3
S'Thu Jan 30, 2014'
p4062
sg5
S'Tampa Bay'
p4063
sg7
S'Ottawa'
p4064
sg9
S'7:30 PM ET'
p4065
sa(dp4066
g3
S'Thu Jan 30, 2014'
p4067
sg5
S'New Jersey'
p4068
sg7
S'Dallas'
p4069
sg9
S'8:30 PM ET'
p4070
sa(dp4071
g3
S'Thu Jan 30, 2014'
p4072
sg5
S'Minnesota'
p4073
sg7
S'Colorado'
p4074
sg9
S'9:00 PM ET'
p4075
sa(dp4076
g3
S'Thu Jan 30, 2014'
p4077
sg5
S'San Jose'
p4078
sg7
S'Calgary'
p4079
sg9
S'9:00 PM ET'
p4080
sa(dp4081
g3
S'Thu Jan 30, 2014'
p4082
sg5
S'Buffalo'
p4083
sg7
S'Phoenix'
p4084
sg9
S'9:00 PM ET'
p4085
sa(dp4086
g3
S'Thu Jan 30, 2014'
p4087
sg5
S'Philadelphia'
p4088
sg7
S'Anaheim'
p4089
sg9
S'10:00 PM ET'
p4090
sa(dp4091
g3
S'Thu Jan 30, 2014'
p4092
sg5
S'Pittsburgh'
p4093
sg7
S'Los Angeles'
p4094
sg9
S'10:30 PM ET'
p4095
sa(dp4096
g3
S'Fri Jan 31, 2014'
p4097
sg5
S'NY Islanders'
p4098
sg7
S'NY Rangers'
p4099
sg9
S'7:00 PM ET'
p4100
sa(dp4101
g3
S'Fri Jan 31, 2014'
p4102
sg5
S'St. Louis'
p4103
sg7
S'Carolina'
p4104
sg9
S'7:00 PM ET'
p4105
sa(dp4106
g3
S'Fri Jan 31, 2014'
p4107
sg5
S'Washington'
p4108
sg7
S'Detroit'
p4109
sg9
S'7:30 PM ET'
p4110
sa(dp4111
g3
S'Fri Jan 31, 2014'
p4112
sg5
S'New Jersey'
p4113
sg7
S'Nashville'
p4114
sg9
S'8:00 PM ET'
p4115
sa(dp4116
g3
S'Fri Jan 31, 2014'
p4117
sg5
S'Vancouver'
p4118
sg7
S'Winnipeg'
p4119
sg9
S'8:30 PM ET'
p4120
sa(dp4121
g3
S'Sat Feb 1, 2014'
p4122
sg5
S'Edmonton'
p4123
sg7
S'Boston'
p4124
sg9
S'1:00 PM ET'
p4125
sa(dp4126
g3
S'Sat Feb 1, 2014'
p4127
sg5
S'Tampa Bay'
p4128
sg7
S'Montr\xc3\xa9al'
p4129
sg9
S'1:00 PM ET'
p4130
sa(dp4131
g3
S'Sat Feb 1, 2014'
p4132
sg5
S'Buffalo'
p4133
sg7
S'Colorado'
p4134
sg9
S'3:00 PM ET'
p4135
sa(dp4136
g3
S'Sat Feb 1, 2014'
p4137
sg5
S'Philadelphia'
p4138
sg7
S'Los Angeles'
p4139
sg9
S'4:00 PM ET'
p4140
sa(dp4141
g3
S'Sat Feb 1, 2014'
p4142
sg5
S'Ottawa'
p4143
sg7
S'Toronto'
p4144
sg9
S'7:00 PM ET'
p4145
sa(dp4146
g3
S'Sat Feb 1, 2014'
p4147
sg5
S'Florida'
p4148
sg7
S'Columbus'
p4149
sg9
S'7:00 PM ET'
p4150
sa(dp4151
g3
S'Sat Feb 1, 2014'
p4152
sg5
S'Nashville'
p4153
sg7
S'St. Louis'
p4154
sg9
S'8:00 PM ET'
p4155
sa(dp4156
g3
S'Sat Feb 1, 2014'
p4157
sg5
S'Pittsburgh'
p4158
sg7
S'Phoenix'
p4159
sg9
S'8:00 PM ET'
p4160
sa(dp4161
g3
S'Sat Feb 1, 2014'
p4162
sg5
S'Minnesota'
p4163
sg7
S'Calgary'
p4164
sg9
S'10:00 PM ET'
p4165
sa(dp4166
g3
S'Sat Feb 1, 2014'
p4167
sg5
S'Dallas'
p4168
sg7
S'Anaheim'
p4169
sg9
S'10:00 PM ET'
p4170
sa(dp4171
g3
S'Sat Feb 1, 2014'
p4172
sg5
S'Chicago'
p4173
sg7
S'San Jose'
p4174
sg9
S'10:30 PM ET'
p4175
sa(dp4176
g3
S'Sun Feb 2, 2014'
p4177
sg5
S'Detroit'
p4178
sg7
S'Washington'
p4179
sg9
S'12:30 PM ET'
p4180
sa(dp4181
g3
S'Sun Feb 2, 2014'
p4182
sg5
S'Winnipeg'
p4183
sg7
S'Montr\xc3\xa9al'
p4184
sg9
S'1:00 PM ET'
p4185
sa(dp4186
g3
S'Mon Feb 3, 2014'
p4187
sg5
S'Edmonton'
p4188
sg7
S'Buffalo'
p4189
sg9
S'7:00 PM ET'
p4190
sa(dp4191
g3
S'Mon Feb 3, 2014'
p4192
sg5
S'Ottawa'
p4193
sg7
S'Pittsburgh'
p4194
sg9
S'7:00 PM ET'
p4195
sa(dp4196
g3
S'Mon Feb 3, 2014'
p4197
sg5
S'Vancouver'
p4198
sg7
S'Detroit'
p4199
sg9
S'7:30 PM ET'
p4200
sa(dp4201
g3
S'Mon Feb 3, 2014'
p4202
sg5
S'Colorado'
p4203
sg7
S'New Jersey'
p4204
sg9
S'7:30 PM ET'
p4205
sa(dp4206
g3
S'Mon Feb 3, 2014'
p4207
sg5
S'Columbus'
p4208
sg7
S'Anaheim'
p4209
sg9
S'10:00 PM ET'
p4210
sa(dp4211
g3
S'Mon Feb 3, 2014'
p4212
sg5
S'Chicago'
p4213
sg7
S'Los Angeles'
p4214
sg9
S'10:30 PM ET'
p4215
sa(dp4216
g3
S'Mon Feb 3, 2014'
p4217
sg5
S'Philadelphia'
p4218
sg7
S'San Jose'
p4219
sg9
S'10:30 PM ET'
p4220
sa(dp4221
g3
S'Tue Feb 4, 2014'
p4222
sg5
S'Vancouver'
p4223
sg7
S'Boston'
p4224
sg9
S'7:00 PM ET'
p4225
sa(dp4226
g3
S'Tue Feb 4, 2014'
p4227
sg5
S'Colorado'
p4228
sg7
S'NY Rangers'
p4229
sg9
S'7:00 PM ET'
p4230
sa(dp4231
g3
S'Tue Feb 4, 2014'
p4232
sg5
S'Winnipeg'
p4233
sg7
S'Carolina'
p4234
sg9
S'7:00 PM ET'
p4235
sa(dp4236
g3
S'Tue Feb 4, 2014'
p4237
sg5
S'Calgary'
p4238
sg7
S'Montr\xc3\xa9al'
p4239
sg9
S'7:30 PM ET'
p4240
sa(dp4241
g3
S'Tue Feb 4, 2014'
p4242
sg5
S'Toronto'
p4243
sg7
S'Florida'
p4244
sg9
S'7:30 PM ET'
p4245
sa(dp4246
g3
S'Tue Feb 4, 2014'
p4247
sg5
S'NY Islanders'
p4248
sg7
S'Washington'
p4249
sg9
S'7:30 PM ET'
p4250
sa(dp4251
g3
S'Tue Feb 4, 2014'
p4252
sg5
S'Ottawa'
p4253
sg7
S'St. Louis'
p4254
sg9
S'8:00 PM ET'
p4255
sa(dp4256
g3
S'Tue Feb 4, 2014'
p4257
sg5
S'Tampa Bay'
p4258
sg7
S'Minnesota'
p4259
sg9
S'8:00 PM ET'
p4260
sa(dp4261
g3
S'Tue Feb 4, 2014'
p4262
sg5
S'Dallas'
p4263
sg7
S'Phoenix'
p4264
sg9
S'9:00 PM ET'
p4265
sa(dp4266
g3
S'Wed Feb 5, 2014'
p4267
sg5
S'Pittsburgh'
p4268
sg7
S'Buffalo'
p4269
sg9
S'7:30 PM ET'
p4270
sa(dp4271
g3
S'Wed Feb 5, 2014'
p4272
sg5
S'Chicago'
p4273
sg7
S'Anaheim'
p4274
sg9
S'10:00 PM ET'
p4275
sa(dp4276
g3
S'Wed Feb 5, 2014'
p4277
sg5
S'Dallas'
p4278
sg7
S'San Jose'
p4279
sg9
S'10:30 PM ET'
p4280
sa(dp4281
g3
S'Thu Feb 6, 2014'
p4282
sg5
S'Calgary'
p4283
sg7
S'NY Islanders'
p4284
sg9
S'7:00 PM ET'
p4285
sa(dp4286
g3
S'Thu Feb 6, 2014'
p4287
sg5
S'Edmonton'
p4288
sg7
S'NY Rangers'
p4289
sg9
S'7:00 PM ET'
p4290
sa(dp4291
g3
S'Thu Feb 6, 2014'
p4292
sg5
S'Colorado'
p4293
sg7
S'Philadelphia'
p4294
sg9
S'7:00 PM ET'
p4295
sa(dp4296
g3
S'Thu Feb 6, 2014'
p4297
sg5
S'Winnipeg'
p4298
sg7
S'Washington'
p4299
sg9
S'7:00 PM ET'
p4300
sa(dp4301
g3
S'Thu Feb 6, 2014'
p4302
sg5
S'Vancouver'
p4303
sg7
S'Montr\xc3\xa9al'
p4304
sg9
S'7:30 PM ET'
p4305
sa(dp4306
g3
S'Thu Feb 6, 2014'
p4307
sg5
S'Buffalo'
p4308
sg7
S'Ottawa'
p4309
sg9
S'7:30 PM ET'
p4310
sa(dp4311
g3
S'Thu Feb 6, 2014'
p4312
sg5
S'Toronto'
p4313
sg7
S'Tampa Bay'
p4314
sg9
S'7:30 PM ET'
p4315
sa(dp4316
g3
S'Thu Feb 6, 2014'
p4317
sg5
S'Detroit'
p4318
sg7
S'Florida'
p4319
sg9
S'7:30 PM ET'
p4320
sa(dp4321
g3
S'Thu Feb 6, 2014'
p4322
sg5
S'Boston'
p4323
sg7
S'St. Louis'
p4324
sg9
S'8:00 PM ET'
p4325
sa(dp4326
g3
S'Thu Feb 6, 2014'
p4327
sg5
S'Nashville'
p4328
sg7
S'Minnesota'
p4329
sg9
S'8:00 PM ET'
p4330
sa(dp4331
g3
S'Thu Feb 6, 2014'
p4332
sg5
S'Columbus'
p4333
sg7
S'Los Angeles'
p4334
sg9
S'10:30 PM ET'
p4335
sa(dp4336
g3
S'Fri Feb 7, 2014'
p4337
sg5
S'Edmonton'
p4338
sg7
S'New Jersey'
p4339
sg9
S'7:00 PM ET'
p4340
sa(dp4341
g3
S'Fri Feb 7, 2014'
p4342
sg5
S'NY Rangers'
p4343
sg7
S'Pittsburgh'
p4344
sg9
S'7:00 PM ET'
p4345
sa(dp4346
g3
S'Fri Feb 7, 2014'
p4347
sg5
S'Florida'
p4348
sg7
S'Carolina'
p4349
sg9
S'7:00 PM ET'
p4350
sa(dp4351
g3
S'Fri Feb 7, 2014'
p4352
sg5
S'Chicago'
p4353
sg7
S'Phoenix'
p4354
sg9
S'9:00 PM ET'
p4355
sa(dp4356
g3
S'Fri Feb 7, 2014'
p4357
sg5
S'Columbus'
p4358
sg7
S'San Jose'
p4359
sg9
S'10:30 PM ET'
p4360
sa(dp4361
g3
S'Sat Feb 8, 2014'
p4362
sg5
S'Calgary'
p4363
sg7
S'Philadelphia'
p4364
sg9
S'1:00 PM ET'
p4365
sa(dp4366
g3
S'Sat Feb 8, 2014'
p4367
sg5
S'Winnipeg'
p4368
sg7
S'St. Louis'
p4369
sg9
S'2:00 PM ET'
p4370
sa(dp4371
g3
S'Sat Feb 8, 2014'
p4372
sg5
S'Ottawa'
p4373
sg7
S'Boston'
p4374
sg9
S'3:00 PM ET'
p4375
sa(dp4376
g3
S'Sat Feb 8, 2014'
p4377
sg5
S'Vancouver'
p4378
sg7
S'Toronto'
p4379
sg9
S'6:00 PM ET'
p4380
sa(dp4381
g3
S'Sat Feb 8, 2014'
p4382
sg5
S'Montr\xc3\xa9al'
p4383
sg7
S'Carolina'
p4384
sg9
S'6:00 PM ET'
p4385
sa(dp4386
g3
S'Sat Feb 8, 2014'
p4387
sg5
S'Detroit'
p4388
sg7
S'Tampa Bay'
p4389
sg9
S'7:00 PM ET'
p4390
sa(dp4391
g3
S'Sat Feb 8, 2014'
p4392
sg5
S'Colorado'
p4393
sg7
S'NY Islanders'
p4394
sg9
S'7:00 PM ET'
p4395
sa(dp4396
g3
S'Sat Feb 8, 2014'
p4397
sg5
S'New Jersey'
p4398
sg7
S'Washington'
p4399
sg9
S'8:00 PM ET'
p4400
sa(dp4401
g3
S'Sat Feb 8, 2014'
p4402
sg5
S'Anaheim'
p4403
sg7
S'Nashville'
p4404
sg9
S'8:00 PM ET'
p4405
sa(dp4406
g3
S'Sat Feb 8, 2014'
p4407
sg5
S'Phoenix'
p4408
sg7
S'Dallas'
p4409
sg9
S'8:00 PM ET'
p4410
sa(dp4411
g3
S'Wed Feb 26, 2014'
p4412
sg5
S'Boston'
p4413
sg7
S'Buffalo'
p4414
sg9
S'7:30 PM ET'
p4415
sa(dp4416
g3
S'Wed Feb 26, 2014'
p4417
sg5
S'Detroit'
p4418
sg7
S'Montr\xc3\xa9al'
p4419
sg9
S'7:30 PM ET'
p4420
sa(dp4421
g3
S'Wed Feb 26, 2014'
p4422
sg5
S'Los Angeles'
p4423
sg7
S'Colorado'
p4424
sg9
S'10:00 PM ET'
p4425
sa(dp4426
g3
S'Wed Feb 26, 2014'
p4427
sg5
S'St. Louis'
p4428
sg7
S'Vancouver'
p4429
sg9
S'10:30 PM ET'
p4430
sa(dp4431
g3
S'Thu Feb 27, 2014'
p4432
sg5
S'Columbus'
p4433
sg7
S'New Jersey'
p4434
sg9
S'7:00 PM ET'
p4435
sa(dp4436
g3
S'Thu Feb 27, 2014'
p4437
sg5
S'Toronto'
p4438
sg7
S'NY Islanders'
p4439
sg9
S'7:00 PM ET'
p4440
sa(dp4441
g3
S'Thu Feb 27, 2014'
p4442
sg5
S'Chicago'
p4443
sg7
S'NY Rangers'
p4444
sg9
S'7:00 PM ET'
p4445
sa(dp4446
g3
S'Thu Feb 27, 2014'
p4447
sg5
S'San Jose'
p4448
sg7
S'Philadelphia'
p4449
sg9
S'7:00 PM ET'
p4450
sa(dp4451
g3
S'Thu Feb 27, 2014'
p4452
sg5
S'Montr\xc3\xa9al'
p4453
sg7
S'Pittsburgh'
p4454
sg9
S'7:00 PM ET'
p4455
sa(dp4456
g3
S'Thu Feb 27, 2014'
p4457
sg5
S'Detroit'
p4458
sg7
S'Ottawa'
p4459
sg9
S'7:30 PM ET'
p4460
sa(dp4461
g3
S'Thu Feb 27, 2014'
p4462
sg5
S'Washington'
p4463
sg7
S'Florida'
p4464
sg9
S'7:30 PM ET'
p4465
sa(dp4466
g3
S'Thu Feb 27, 2014'
p4467
sg5
S'Tampa Bay'
p4468
sg7
S'Nashville'
p4469
sg9
S'8:00 PM ET'
p4470
sa(dp4471
g3
S'Thu Feb 27, 2014'
p4472
sg5
S'Phoenix'
p4473
sg7
S'Winnipeg'
p4474
sg9
S'8:00 PM ET'
p4475
sa(dp4476
g3
S'Thu Feb 27, 2014'
p4477
sg5
S'Carolina'
p4478
sg7
S'Dallas'
p4479
sg9
S'8:30 PM ET'
p4480
sa(dp4481
g3
S'Thu Feb 27, 2014'
p4482
sg5
S'Los Angeles'
p4483
sg7
S'Calgary'
p4484
sg9
S'9:30 PM ET'
p4485
sa(dp4486
g3
S'Thu Feb 27, 2014'
p4487
sg5
S'Minnesota'
p4488
sg7
S'Edmonton'
p4489
sg9
S'9:30 PM ET'
p4490
sa(dp4491
g3
S'Fri Feb 28, 2014'
p4492
sg5
S'San Jose'
p4493
sg7
S'Buffalo'
p4494
sg9
S'7:00 PM ET'
p4495
sa(dp4496
g3
S'Fri Feb 28, 2014'
p4497
sg5
S'Phoenix'
p4498
sg7
S'Colorado'
p4499
sg9
S'9:00 PM ET'
p4500
sa(dp4501
g3
S'Fri Feb 28, 2014'
p4502
sg5
S'Minnesota'
p4503
sg7
S'Vancouver'
p4504
sg9
S'10:00 PM ET'
p4505
sa(dp4506
g3
S'Fri Feb 28, 2014'
p4507
sg5
S'St. Louis'
p4508
sg7
S'Anaheim'
p4509
sg9
S'10:00 PM ET'
p4510
sa(dp4511
g3
S'Sat Mar 1, 2014'
p4512
sg5
S'Washington'
p4513
sg7
S'Boston'
p4514
sg9
S'1:00 PM ET'
p4515
sa(dp4516
g3
S'Sat Mar 1, 2014'
p4517
sg5
S'New Jersey'
p4518
sg7
S'NY Islanders'
p4519
sg9
S'1:00 PM ET'
p4520
sa(dp4521
g3
S'Sat Mar 1, 2014'
p4522
sg5
S'NY Rangers'
p4523
sg7
S'Philadelphia'
p4524
sg9
S'1:00 PM ET'
p4525
sa(dp4526
g3
S'Sat Mar 1, 2014'
p4527
sg5
S'Florida'
p4528
sg7
S'Columbus'
p4529
sg9
S'2:00 PM ET'
p4530
sa(dp4531
g3
S'Sat Mar 1, 2014'
p4532
sg5
S'Winnipeg'
p4533
sg7
S'Nashville'
p4534
sg9
S'3:00 PM ET'
p4535
sa(dp4536
g3
S'Sat Mar 1, 2014'
p4537
sg5
S'Tampa Bay'
p4538
sg7
S'Dallas'
p4539
sg9
S'3:00 PM ET'
p4540
sa(dp4541
g3
S'Sat Mar 1, 2014'
p4542
sg5
S'Carolina'
p4543
sg7
S'Los Angeles'
p4544
sg9
S'4:00 PM ET'
p4545
sa(dp4546
g3
S'Sat Mar 1, 2014'
p4547
sg5
S'Toronto'
p4548
sg7
S'Montr\xc3\xa9al'
p4549
sg9
S'7:00 PM ET'
p4550
sa(dp4551
g3
S'Sat Mar 1, 2014'
p4552
sg5
S'Pittsburgh'
p4553
sg7
S'Chicago'
p4554
sg9
S'8:00 PM ET'
p4555
sa(dp4556
g3
S'Sat Mar 1, 2014'
p4557
sg5
S'Calgary'
p4558
sg7
S'Edmonton'
p4559
sg9
S'10:00 PM ET'
p4560
sa(dp4561
g3
S'Sun Mar 2, 2014'
p4562
sg5
S'Philadelphia'
p4563
sg7
S'Washington'
p4564
sg9
S'12:30 PM ET'
p4565
sa(dp4566
g3
S'Sun Mar 2, 2014'
p4567
sg5
S'San Jose'
p4568
sg7
S'New Jersey'
p4569
sg9
S'3:00 PM ET'
p4570
sa(dp4571
g3
S'Sun Mar 2, 2014'
p4572
sg5
S'Florida'
p4573
sg7
S'NY Islanders'
p4574
sg9
S'3:00 PM ET'
p4575
sa(dp4576
g3
S'Sun Mar 2, 2014'
p4577
sg5
S'Ottawa'
p4578
sg7
S'Vancouver'
p4579
sg9
S'4:00 PM ET'
p4580
sa(dp4581
g3
S'Sun Mar 2, 2014'
p4582
sg5
S'Boston'
p4583
sg7
S'NY Rangers'
p4584
sg9
S'7:00 PM ET'
p4585
sa(dp4586
g3
S'Sun Mar 2, 2014'
p4587
sg5
S'Tampa Bay'
p4588
sg7
S'Colorado'
p4589
sg9
S'8:00 PM ET'
p4590
sa(dp4591
g3
S'Sun Mar 2, 2014'
p4592
sg5
S'St. Louis'
p4593
sg7
S'Phoenix'
p4594
sg9
S'8:00 PM ET'
p4595
sa(dp4596
g3
S'Sun Mar 2, 2014'
p4597
sg5
S'Carolina'
p4598
sg7
S'Anaheim'
p4599
sg9
S'8:00 PM ET'
p4600
sa(dp4601
g3
S'Mon Mar 3, 2014'
p4602
sg5
S'Columbus'
p4603
sg7
S'Toronto'
p4604
sg9
S'7:00 PM ET'
p4605
sa(dp4606
g3
S'Mon Mar 3, 2014'
p4607
sg5
S'Buffalo'
p4608
sg7
S'Dallas'
p4609
sg9
S'8:00 PM ET'
p4610
sa(dp4611
g3
S'Mon Mar 3, 2014'
p4612
sg5
S'Calgary'
p4613
sg7
S'Minnesota'
p4614
sg9
S'8:00 PM ET'
p4615
sa(dp4616
g3
S'Mon Mar 3, 2014'
p4617
sg5
S'Montr\xc3\xa9al'
p4618
sg7
S'Los Angeles'
p4619
sg9
S'10:30 PM ET'
p4620
sa(dp4621
g3
S'Tue Mar 4, 2014'
p4622
sg5
S'Florida'
p4623
sg7
S'Boston'
p4624
sg9
S'7:00 PM ET'
p4625
sa(dp4626
g3
S'Tue Mar 4, 2014'
p4627
sg5
S'Detroit'
p4628
sg7
S'New Jersey'
p4629
sg9
S'7:00 PM ET'
p4630
sa(dp4631
g3
S'Tue Mar 4, 2014'
p4632
sg5
S'Dallas'
p4633
sg7
S'Columbus'
p4634
sg9
S'7:00 PM ET'
p4635
sa(dp4636
g3
S'Tue Mar 4, 2014'
p4637
sg5
S'Colorado'
p4638
sg7
S'Chicago'
p4639
sg9
S'8:00 PM ET'
p4640
sa(dp4641
g3
S'Tue Mar 4, 2014'
p4642
sg5
S'Tampa Bay'
p4643
sg7
S'St. Louis'
p4644
sg9
S'8:00 PM ET'
p4645
sa(dp4646
g3
S'Tue Mar 4, 2014'
p4647
sg5
S'Pittsburgh'
p4648
sg7
S'Nashville'
p4649
sg9
S'8:00 PM ET'
p4650
sa(dp4651
g3
S'Tue Mar 4, 2014'
p4652
sg5
S'NY Islanders'
p4653
sg7
S'Winnipeg'
p4654
sg9
S'8:00 PM ET'
p4655
sa(dp4656
g3
S'Tue Mar 4, 2014'
p4657
sg5
S'Vancouver'
p4658
sg7
S'Phoenix'
p4659
sg9
S'9:00 PM ET'
p4660
sa(dp4661
g3
S'Tue Mar 4, 2014'
p4662
sg5
S'Ottawa'
p4663
sg7
S'Edmonton'
p4664
sg9
S'9:30 PM ET'
p4665
sa(dp4666
g3
S'Tue Mar 4, 2014'
p4667
sg5
S'Carolina'
p4668
sg7
S'San Jose'
p4669
sg9
S'10:30 PM ET'
p4670
sa(dp4671
g3
S'Wed Mar 5, 2014'
p4672
sg5
S'Toronto'
p4673
sg7
S'NY Rangers'
p4674
sg9
S'7:00 PM ET'
p4675
sa(dp4676
g3
S'Wed Mar 5, 2014'
p4677
sg5
S'Washington'
p4678
sg7
S'Philadelphia'
p4679
sg9
S'8:00 PM ET'
p4680
sa(dp4681
g3
S'Wed Mar 5, 2014'
p4682
sg5
S'Ottawa'
p4683
sg7
S'Calgary'
p4684
sg9
S'9:30 PM ET'
p4685
sa(dp4686
g3
S'Wed Mar 5, 2014'
p4687
sg5
S'Montr\xc3\xa9al'
p4688
sg7
S'Anaheim'
p4689
sg9
S'10:00 PM ET'
p4690
sa(dp4691
g3
S'Thu Mar 6, 2014'
p4692
sg5
S'Washington'
p4693
sg7
S'Boston'
p4694
sg9
S'7:00 PM ET'
p4695
sa(dp4696
g3
S'Thu Mar 6, 2014'
p4697
sg5
S'Los Angeles'
p4698
sg7
S'Winnipeg'
p4699
sg9
S'7:00 PM ET'
p4700
sa(dp4701
g3
S'Thu Mar 6, 2014'
p4702
sg5
S'Colorado'
p4703
sg7
S'Detroit'
p4704
sg9
S'7:30 PM ET'
p4705
sa(dp4706
g3
S'Thu Mar 6, 2014'
p4707
sg5
S'Buffalo'
p4708
sg7
S'Tampa Bay'
p4709
sg9
S'7:30 PM ET'
p4710
sa(dp4711
g3
S'Thu Mar 6, 2014'
p4712
sg5
S'Columbus'
p4713
sg7
S'Chicago'
p4714
sg9
S'8:00 PM ET'
p4715
sa(dp4716
g3
S'Thu Mar 6, 2014'
p4717
sg5
S'St. Louis'
p4718
sg7
S'Nashville'
p4719
sg9
S'8:00 PM ET'
p4720
sa(dp4721
g3
S'Thu Mar 6, 2014'
p4722
sg5
S'Vancouver'
p4723
sg7
S'Dallas'
p4724
sg9
S'8:30 PM ET'
p4725
sa(dp4726
g3
S'Thu Mar 6, 2014'
p4727
sg5
S'Montr\xc3\xa9al'
p4728
sg7
S'Phoenix'
p4729
sg9
S'9:00 PM ET'
p4730
sa(dp4731
g3
S'Thu Mar 6, 2014'
p4732
sg5
S'NY Islanders'
p4733
sg7
S'Edmonton'
p4734
sg9
S'9:30 PM ET'
p4735
sa(dp4736
g3
S'Thu Mar 6, 2014'
p4737
sg5
S'Pittsburgh'
p4738
sg7
S'San Jose'
p4739
sg9
S'10:30 PM ET'
p4740
sa(dp4741
g3
S'Fri Mar 7, 2014'
p4742
sg5
S'NY Rangers'
p4743
sg7
S'Carolina'
p4744
sg9
S'7:00 PM ET'
p4745
sa(dp4746
g3
S'Fri Mar 7, 2014'
p4747
sg5
S'New Jersey'
p4748
sg7
S'Detroit'
p4749
sg9
S'7:30 PM ET'
p4750
sa(dp4751
g3
S'Fri Mar 7, 2014'
p4752
sg5
S'Buffalo'
p4753
sg7
S'Florida'
p4754
sg9
S'7:30 PM ET'
p4755
sa(dp4756
g3
S'Fri Mar 7, 2014'
p4757
sg5
S'NY Islanders'
p4758
sg7
S'Calgary'
p4759
sg9
S'9:00 PM ET'
p4760
sa(dp4761
g3
S'Fri Mar 7, 2014'
p4762
sg5
S'Pittsburgh'
p4763
sg7
S'Anaheim'
p4764
sg9
S'10:00 PM ET'
p4765
sa(dp4766
g3
S'Sat Mar 8, 2014'
p4767
sg5
S'Ottawa'
p4768
sg7
S'Winnipeg'
p4769
sg9
S'3:00 PM ET'
p4770
sa(dp4771
g3
S'Sat Mar 8, 2014'
p4772
sg5
S'St. Louis'
p4773
sg7
S'Colorado'
p4774
sg9
S'3:00 PM ET'
p4775
sa(dp4776
g3
S'Sat Mar 8, 2014'
p4777
sg5
S'Philadelphia'
p4778
sg7
S'Toronto'
p4779
sg9
S'7:00 PM ET'
p4780
sa(dp4781
g3
S'Sat Mar 8, 2014'
p4782
sg5
S'Boston'
p4783
sg7
S'Tampa Bay'
p4784
sg9
S'7:00 PM ET'
p4785
sa(dp4786
g3
S'Sat Mar 8, 2014'
p4787
sg5
S'Carolina'
p4788
sg7
S'New Jersey'
p4789
sg9
S'7:00 PM ET'
p4790
sa(dp4791
g3
S'Sat Mar 8, 2014'
p4792
sg5
S'Phoenix'
p4793
sg7
S'Washington'
p4794
sg9
S'7:00 PM ET'
p4795
sa(dp4796
g3
S'Sat Mar 8, 2014'
p4797
sg5
S'Columbus'
p4798
sg7
S'Nashville'
p4799
sg9
S'8:00 PM ET'
p4800
sa(dp4801
g3
S'Sat Mar 8, 2014'
p4802
sg5
S'Minnesota'
p4803
sg7
S'Dallas'
p4804
sg9
S'8:30 PM ET'
p4805
sa(dp4806
g3
S'Sat Mar 8, 2014'
p4807
sg5
S'Calgary'
p4808
sg7
S'Vancouver'
p4809
sg9
S'10:00 PM ET'
p4810
sa(dp4811
g3
S'Sat Mar 8, 2014'
p4812
sg5
S'Montr\xc3\xa9al'
p4813
sg7
S'San Jose'
p4814
sg9
S'10:00 PM ET'
p4815
sa(dp4816
g3
S'Sun Mar 9, 2014'
p4817
sg5
S'Boston'
p4818
sg7
S'Florida'
p4819
sg9
S'5:00 PM ET'
p4820
sa(dp4821
g3
S'Sun Mar 9, 2014'
p4822
sg5
S'Chicago'
p4823
sg7
S'Buffalo'
p4824
sg9
S'7:30 PM ET'
p4825
sa(dp4826
g3
S'Sun Mar 9, 2014'
p4827
sg5
S'Detroit'
p4828
sg7
S'NY Rangers'
p4829
sg9
S'7:30 PM ET'
p4830
sa(dp4831
g3
S'Sun Mar 9, 2014'
p4832
sg5
S'St. Louis'
p4833
sg7
S'Minnesota'
p4834
sg9
S'8:00 PM ET'
p4835
sa(dp4836
g3
S'Sun Mar 9, 2014'
p4837
sg5
S'Los Angeles'
p4838
sg7
S'Edmonton'
p4839
sg9
S'8:00 PM ET'
p4840
sa(dp4841
g3
S'Mon Mar 10, 2014'
p4842
sg5
S'Pittsburgh'
p4843
sg7
S'Washington'
p4844
sg9
S'7:00 PM ET'
p4845
sa(dp4846
g3
S'Mon Mar 10, 2014'
p4847
sg5
S'Nashville'
p4848
sg7
S'Ottawa'
p4849
sg9
S'7:30 PM ET'
p4850
sa(dp4851
g3
S'Mon Mar 10, 2014'
p4852
sg5
S'Phoenix'
p4853
sg7
S'Tampa Bay'
p4854
sg9
S'7:30 PM ET'
p4855
sa(dp4856
g3
S'Mon Mar 10, 2014'
p4857
sg5
S'Columbus'
p4858
sg7
S'Dallas'
p4859
sg9
S'8:30 PM ET'
p4860
sa(dp4861
g3
S'Mon Mar 10, 2014'
p4862
sg5
S'Winnipeg'
p4863
sg7
S'Colorado'
p4864
sg9
S'9:00 PM ET'
p4865
sa(dp4866
g3
S'Mon Mar 10, 2014'
p4867
sg5
S'Los Angeles'
p4868
sg7
S'Calgary'
p4869
sg9
S'9:00 PM ET'
p4870
sa(dp4871
g3
S'Mon Mar 10, 2014'
p4872
sg5
S'NY Islanders'
p4873
sg7
S'Vancouver'
p4874
sg9
S'10:00 PM ET'
p4875
sa(dp4876
g3
S'Mon Mar 10, 2014'
p4877
sg5
S'Toronto'
p4878
sg7
S'Anaheim'
p4879
sg9
S'10:00 PM ET'
p4880
sa(dp4881
g3
S'Tue Mar 11, 2014'
p4882
sg5
S'Nashville'
p4883
sg7
S'Buffalo'
p4884
sg9
S'7:00 PM ET'
p4885
sa(dp4886
g3
S'Tue Mar 11, 2014'
p4887
sg5
S'New Jersey'
p4888
sg7
S'Philadelphia'
p4889
sg9
S'7:00 PM ET'
p4890
sa(dp4891
g3
S'Tue Mar 11, 2014'
p4892
sg5
S'NY Rangers'
p4893
sg7
S'Carolina'
p4894
sg9
S'7:00 PM ET'
p4895
sa(dp4896
g3
S'Tue Mar 11, 2014'
p4897
sg5
S'Detroit'
p4898
sg7
S'Columbus'
p4899
sg9
S'7:00 PM ET'
p4900
sa(dp4901
g3
S'Tue Mar 11, 2014'
p4902
sg5
S'Phoenix'
p4903
sg7
S'Florida'
p4904
sg9
S'7:30 PM ET'
p4905
sa(dp4906
g3
S'Tue Mar 11, 2014'
p4907
sg5
S'Washington'
p4908
sg7
S'Pittsburgh'
p4909
sg9
S'7:30 PM ET'
p4910
sa(dp4911
g3
S'Tue Mar 11, 2014'
p4912
sg5
S'Dallas'
p4913
sg7
S'St. Louis'
p4914
sg9
S'8:00 PM ET'
p4915
sa(dp4916
g3
S'Tue Mar 11, 2014'
p4917
sg5
S'Edmonton'
p4918
sg7
S'Minnesota'
p4919
sg9
S'8:00 PM ET'
p4920
sa(dp4921
g3
S'Tue Mar 11, 2014'
p4922
sg5
S'Toronto'
p4923
sg7
S'San Jose'
p4924
sg9
S'10:30 PM ET'
p4925
sa(dp4926
g3
S'Wed Mar 12, 2014'
p4927
sg5
S'Boston'
p4928
sg7
S'Montr\xc3\xa9al'
p4929
sg9
S'7:30 PM ET'
p4930
sa(dp4931
g3
S'Wed Mar 12, 2014'
p4932
sg5
S'Vancouver'
p4933
sg7
S'Winnipeg'
p4934
sg9
S'7:30 PM ET'
p4935
sa(dp4936
g3
S'Wed Mar 12, 2014'
p4937
sg5
S'Chicago'
p4938
sg7
S'Colorado'
p4939
sg9
S'9:30 PM ET'
p4940
sa(dp4941
g3
S'Wed Mar 12, 2014'
p4942
sg5
S'Anaheim'
p4943
sg7
S'Calgary'
p4944
sg9
S'10:00 PM ET'
p4945
sa(dp4946
g3
S'Thu Mar 13, 2014'
p4947
sg5
S'Phoenix'
p4948
sg7
S'Boston'
p4949
sg9
S'7:00 PM ET'
p4950
sa(dp4951
g3
S'Thu Mar 13, 2014'
p4952
sg5
S'Buffalo'
p4953
sg7
S'Carolina'
p4954
sg9
S'7:00 PM ET'
p4955
sa(dp4956
g3
S'Thu Mar 13, 2014'
p4957
sg5
S'San Jose'
p4958
sg7
S'Columbus'
p4959
sg9
S'7:00 PM ET'
p4960
sa(dp4961
g3
S'Thu Mar 13, 2014'
p4962
sg5
S'Florida'
p4963
sg7
S'Tampa Bay'
p4964
sg9
S'7:30 PM ET'
p4965
sa(dp4966
g3
S'Thu Mar 13, 2014'
p4967
sg5
S'Edmonton'
p4968
sg7
S'St. Louis'
p4969
sg9
S'8:00 PM ET'
p4970
sa(dp4971
g3
S'Thu Mar 13, 2014'
p4972
sg5
S'NY Rangers'
p4973
sg7
S'Minnesota'
p4974
sg9
S'8:00 PM ET'
p4975
sa(dp4976
g3
S'Thu Mar 13, 2014'
p4977
sg5
S'Toronto'
p4978
sg7
S'Los Angeles'
p4979
sg9
S'10:30 PM ET'
p4980
sa(dp4981
g3
S'Fri Mar 14, 2014'
p4982
sg5
S'San Jose'
p4983
sg7
S'NY Islanders'
p4984
sg9
S'7:00 PM ET'
p4985
sa(dp4986
g3
S'Fri Mar 14, 2014'
p4987
sg5
S'Vancouver'
p4988
sg7
S'Washington'
p4989
sg9
S'7:00 PM ET'
p4990
sa(dp4991
g3
S'Fri Mar 14, 2014'
p4992
sg5
S'Edmonton'
p4993
sg7
S'Detroit'
p4994
sg9
S'7:30 PM ET'
p4995
sa(dp4996
g3
S'Fri Mar 14, 2014'
p4997
sg5
S'New Jersey'
p4998
sg7
S'Florida'
p4999
sg9
S'7:30 PM ET'
p5000
sa(dp5001
g3
S'Fri Mar 14, 2014'
p5002
sg5
S'Nashville'
p5003
sg7
S'Chicago'
p5004
sg9
S'8:00 PM ET'
p5005
sa(dp5006
g3
S'Fri Mar 14, 2014'
p5007
sg5
S'NY Rangers'
p5008
sg7
S'Winnipeg'
p5009
sg9
S'8:00 PM ET'
p5010
sa(dp5011
g3
S'Fri Mar 14, 2014'
p5012
sg5
S'Calgary'
p5013
sg7
S'Dallas'
p5014
sg9
S'8:30 PM ET'
p5015
sa(dp5016
g3
S'Fri Mar 14, 2014'
p5017
sg5
S'Anaheim'
p5018
sg7
S'Colorado'
p5019
sg9
S'9:00 PM ET'
p5020
sa(dp5021
g3
S'Sat Mar 15, 2014'
p5022
sg5
S'Carolina'
p5023
sg7
S'Boston'
p5024
sg9
S'1:00 PM ET'
p5025
sa(dp5026
g3
S'Sat Mar 15, 2014'
p5027
sg5
S'Pittsburgh'
p5028
sg7
S'Philadelphia'
p5029
sg9
S'1:00 PM ET'
p5030
sa(dp5031
g3
S'Sat Mar 15, 2014'
p5032
sg5
S'Ottawa'
p5033
sg7
S'Montr\xc3\xa9al'
p5034
sg9
S'7:00 PM ET'
p5035
sa(dp5036
g3
S'Sat Mar 15, 2014'
p5037
sg5
S'New Jersey'
p5038
sg7
S'Tampa Bay'
p5039
sg9
S'7:00 PM ET'
p5040
sa(dp5041
g3
S'Sat Mar 15, 2014'
p5042
sg5
S'Buffalo'
p5043
sg7
S'NY Islanders'
p5044
sg9
S'7:00 PM ET'
p5045
sa(dp5046
g3
S'Sat Mar 15, 2014'
p5047
sg5
S'St. Louis'
p5048
sg7
S'Nashville'
p5049
sg9
S'8:00 PM ET'
p5050
sa(dp5051
g3
S'Sat Mar 15, 2014'
p5052
sg5
S'Columbus'
p5053
sg7
S'Minnesota'
p5054
sg9
S'8:00 PM ET'
p5055
sa(dp5056
g3
S'Sat Mar 15, 2014'
p5057
sg5
S'Calgary'
p5058
sg7
S'Phoenix'
p5059
sg9
S'10:00 PM ET'
p5060
sa(dp5061
g3
S'Sat Mar 15, 2014'
p5062
sg5
S'Anaheim'
p5063
sg7
S'Los Angeles'
p5064
sg9
S'10:30 PM ET'
p5065
sa(dp5066
g3
S'Sun Mar 16, 2014'
p5067
sg5
S'Vancouver'
p5068
sg7
S'Florida'
p5069
sg9
S'3:00 PM ET'
p5070
sa(dp5071
g3
S'Sun Mar 16, 2014'
p5072
sg5
S'Toronto'
p5073
sg7
S'Washington'
p5074
sg9
S'3:00 PM ET'
p5075
sa(dp5076
g3
S'Sun Mar 16, 2014'
p5077
sg5
S'Edmonton'
p5078
sg7
S'Carolina'
p5079
sg9
S'3:00 PM ET'
p5080
sa(dp5081
g3
S'Sun Mar 16, 2014'
p5082
sg5
S'San Jose'
p5083
sg7
S'NY Rangers'
p5084
sg9
S'4:00 PM ET'
p5085
sa(dp5086
g3
S'Sun Mar 16, 2014'
p5087
sg5
S'Colorado'
p5088
sg7
S'Ottawa'
p5089
sg9
S'5:00 PM ET'
p5090
sa(dp5091
g3
S'Sun Mar 16, 2014'
p5092
sg5
S'Montr\xc3\xa9al'
p5093
sg7
S'Buffalo'
p5094
sg9
S'7:00 PM ET'
p5095
sa(dp5096
g3
S'Sun Mar 16, 2014'
p5097
sg5
S'Philadelphia'
p5098
sg7
S'Pittsburgh'
p5099
sg9
S'7:30 PM ET'
p5100
sa(dp5101
g3
S'Sun Mar 16, 2014'
p5102
sg5
S'Detroit'
p5103
sg7
S'Chicago'
p5104
sg9
S'7:30 PM ET'
p5105
sa(dp5106
g3
S'Sun Mar 16, 2014'
p5107
sg5
S'Dallas'
p5108
sg7
S'Winnipeg'
p5109
sg9
S'8:00 PM ET'
p5110
sa(dp5111
g3
S'Mon Mar 17, 2014'
p5112
sg5
S'Minnesota'
p5113
sg7
S'Boston'
p5114
sg9
S'7:30 PM ET'
p5115
sa(dp5116
g3
S'Mon Mar 17, 2014'
p5117
sg5
S'Vancouver'
p5118
sg7
S'Tampa Bay'
p5119
sg9
S'7:30 PM ET'
p5120
sa(dp5121
g3
S'Mon Mar 17, 2014'
p5122
sg5
S'Winnipeg'
p5123
sg7
S'St. Louis'
p5124
sg9
S'8:00 PM ET'
p5125
sa(dp5126
g3
S'Mon Mar 17, 2014'
p5127
sg5
S'Phoenix'
p5128
sg7
S'Los Angeles'
p5129
sg9
S'10:30 PM ET'
p5130
sa(dp5131
g3
S'Tue Mar 18, 2014'
p5132
sg5
S'Boston'
p5133
sg7
S'New Jersey'
p5134
sg9
S'7:00 PM ET'
p5135
sa(dp5136
g3
S'Tue Mar 18, 2014'
p5137
sg5
S'Minnesota'
p5138
sg7
S'NY Islanders'
p5139
sg9
S'7:00 PM ET'
p5140
sa(dp5141
g3
S'Tue Mar 18, 2014'
p5142
sg5
S'Dallas'
p5143
sg7
S'Pittsburgh'
p5144
sg9
S'7:00 PM ET'
p5145
sa(dp5146
g3
S'Tue Mar 18, 2014'
p5147
sg5
S'Carolina'
p5148
sg7
S'Columbus'
p5149
sg9
S'7:00 PM ET'
p5150
sa(dp5151
g3
S'Tue Mar 18, 2014'
p5152
sg5
S'Colorado'
p5153
sg7
S'Montr\xc3\xa9al'
p5154
sg9
S'7:30 PM ET'
p5155
sa(dp5156
g3
S'Tue Mar 18, 2014'
p5157
sg5
S'NY Rangers'
p5158
sg7
S'Ottawa'
p5159
sg9
S'7:30 PM ET'
p5160
sa(dp5161
g3
S'Tue Mar 18, 2014'
p5162
sg5
S'Toronto'
p5163
sg7
S'Detroit'
p5164
sg9
S'7:30 PM ET'
p5165
sa(dp5166
g3
S'Tue Mar 18, 2014'
p5167
sg5
S'Chicago'
p5168
sg7
S'Philadelphia'
p5169
sg9
S'7:30 PM ET'
p5170
sa(dp5171
g3
S'Tue Mar 18, 2014'
p5172
sg5
S'Buffalo'
p5173
sg7
S'Calgary'
p5174
sg9
S'9:00 PM ET'
p5175
sa(dp5176
g3
S'Tue Mar 18, 2014'
p5177
sg5
S'Nashville'
p5178
sg7
S'Edmonton'
p5179
sg9
S'9:30 PM ET'
p5180
sa(dp5181
g3
S'Tue Mar 18, 2014'
p5182
sg5
S'Washington'
p5183
sg7
S'Anaheim'
p5184
sg9
S'10:00 PM ET'
p5185
sa(dp5186
g3
S'Tue Mar 18, 2014'
p5187
sg5
S'Florida'
p5188
sg7
S'San Jose'
p5189
sg9
S'10:30 PM ET'
p5190
sa(dp5191
g3
S'Wed Mar 19, 2014'
p5192
sg5
S'Tampa Bay'
p5193
sg7
S'Toronto'
p5194
sg9
S'7:00 PM ET'
p5195
sa(dp5196
g3
S'Wed Mar 19, 2014'
p5197
sg5
S'St. Louis'
p5198
sg7
S'Chicago'
p5199
sg9
S'8:00 PM ET'
p5200
sa(dp5201
g3
S'Wed Mar 19, 2014'
p5202
sg5
S'Colorado'
p5203
sg7
S'Winnipeg'
p5204
sg9
S'8:00 PM ET'
p5205
sa(dp5206
g3
S'Wed Mar 19, 2014'
p5207
sg5
S'Nashville'
p5208
sg7
S'Vancouver'
p5209
sg9
S'10:00 PM ET'
p5210
sa(dp5211
g3
S'Thu Mar 20, 2014'
p5212
sg5
S'Minnesota'
p5213
sg7
S'New Jersey'
p5214
sg9
S'7:00 PM ET'
p5215
sa(dp5216
g3
S'Thu Mar 20, 2014'
p5217
sg5
S'Dallas'
p5218
sg7
S'Philadelphia'
p5219
sg9
S'7:00 PM ET'
p5220
sa(dp5221
g3
S'Thu Mar 20, 2014'
p5222
sg5
S'Columbus'
p5223
sg7
S'Montr\xc3\xa9al'
p5224
sg9
S'7:30 PM ET'
p5225
sa(dp5226
g3
S'Thu Mar 20, 2014'
p5227
sg5
S'Tampa Bay'
p5228
sg7
S'Ottawa'
p5229
sg9
S'7:30 PM ET'
p5230
sa(dp5231
g3
S'Thu Mar 20, 2014'
p5232
sg5
S'Pittsburgh'
p5233
sg7
S'Detroit'
p5234
sg9
S'7:30 PM ET'
p5235
sa(dp5236
g3
S'Thu Mar 20, 2014'
p5237
sg5
S'Buffalo'
p5238
sg7
S'Edmonton'
p5239
sg9
S'9:30 PM ET'
p5240
sa(dp5241
g3
S'Thu Mar 20, 2014'
p5242
sg5
S'Florida'
p5243
sg7
S'Phoenix'
p5244
sg9
S'10:00 PM ET'
p5245
sa(dp5246
g3
S'Thu Mar 20, 2014'
p5247
sg5
S'Washington'
p5248
sg7
S'Los Angeles'
p5249
sg9
S'10:30 PM ET'
p5250
sa(dp5251
g3
S'Thu Mar 20, 2014'
p5252
sg5
S'Anaheim'
p5253
sg7
S'San Jose'
p5254
sg9
S'10:30 PM ET'
p5255
sa(dp5256
g3
S'Fri Mar 21, 2014'
p5257
sg5
S'NY Rangers'
p5258
sg7
S'Columbus'
p5259
sg9
S'7:00 PM ET'
p5260
sa(dp5261
g3
S'Fri Mar 21, 2014'
p5262
sg5
S'Carolina'
p5263
sg7
S'Chicago'
p5264
sg9
S'8:00 PM ET'
p5265
sa(dp5266
g3
S'Fri Mar 21, 2014'
p5267
sg5
S'Boston'
p5268
sg7
S'Colorado'
p5269
sg9
S'9:00 PM ET'
p5270
sa(dp5271
g3
S'Fri Mar 21, 2014'
p5272
sg5
S'Nashville'
p5273
sg7
S'Calgary'
p5274
sg9
S'9:00 PM ET'
p5275
sa(dp5276
g3
S'Sat Mar 22, 2014'
p5277
sg5
S'St. Louis'
p5278
sg7
S'Philadelphia'
p5279
sg9
S'1:00 PM ET'
p5280
sa(dp5281
g3
S'Sat Mar 22, 2014'
p5282
sg5
S'Tampa Bay'
p5283
sg7
S'Pittsburgh'
p5284
sg9
S'1:00 PM ET'
p5285
sa(dp5286
g3
S'Sat Mar 22, 2014'
p5287
sg5
S'Detroit'
p5288
sg7
S'Minnesota'
p5289
sg9
S'2:00 PM ET'
p5290
sa(dp5291
g3
S'Sat Mar 22, 2014'
p5292
sg5
S'Ottawa'
p5293
sg7
S'Dallas'
p5294
sg9
S'3:00 PM ET'
p5295
sa(dp5296
g3
S'Sat Mar 22, 2014'
p5297
sg5
S'Florida'
p5298
sg7
S'Los Angeles'
p5299
sg9
S'4:00 PM ET'
p5300
sa(dp5301
g3
S'Sat Mar 22, 2014'
p5302
sg5
S'Montr\xc3\xa9al'
p5303
sg7
S'Toronto'
p5304
sg9
S'7:00 PM ET'
p5305
sa(dp5306
g3
S'Sat Mar 22, 2014'
p5307
sg5
S'NY Rangers'
p5308
sg7
S'New Jersey'
p5309
sg9
S'7:00 PM ET'
p5310
sa(dp5311
g3
S'Sat Mar 22, 2014'
p5312
sg5
S'Carolina'
p5313
sg7
S'Winnipeg'
p5314
sg9
S'7:00 PM ET'
p5315
sa(dp5316
g3
S'Sat Mar 22, 2014'
p5317
sg5
S'Boston'
p5318
sg7
S'Phoenix'
p5319
sg9
S'9:00 PM ET'
p5320
sa(dp5321
g3
S'Sat Mar 22, 2014'
p5322
sg5
S'Calgary'
p5323
sg7
S'Edmonton'
p5324
sg9
S'10:00 PM ET'
p5325
sa(dp5326
g3
S'Sat Mar 22, 2014'
p5327
sg5
S'Washington'
p5328
sg7
S'San Jose'
p5329
sg9
S'10:30 PM ET'
p5330
sa(dp5331
g3
S'Sun Mar 23, 2014'
p5332
sg5
S'Columbus'
p5333
sg7
S'NY Islanders'
p5334
sg9
S'1:00 PM ET'
p5335
sa(dp5336
g3
S'Sun Mar 23, 2014'
p5337
sg5
S'St. Louis'
p5338
sg7
S'Pittsburgh'
p5339
sg9
S'1:00 PM ET'
p5340
sa(dp5341
g3
S'Sun Mar 23, 2014'
p5342
sg5
S'Toronto'
p5343
sg7
S'New Jersey'
p5344
sg9
S'7:00 PM ET'
p5345
sa(dp5346
g3
S'Sun Mar 23, 2014'
p5347
sg5
S'Nashville'
p5348
sg7
S'Chicago'
p5349
sg9
S'7:00 PM ET'
p5350
sa(dp5351
g3
S'Sun Mar 23, 2014'
p5352
sg5
S'Minnesota'
p5353
sg7
S'Detroit'
p5354
sg9
S'7:30 PM ET'
p5355
sa(dp5356
g3
S'Sun Mar 23, 2014'
p5357
sg5
S'Buffalo'
p5358
sg7
S'Vancouver'
p5359
sg9
S'8:00 PM ET'
p5360
sa(dp5361
g3
S'Sun Mar 23, 2014'
p5362
sg5
S'Florida'
p5363
sg7
S'Anaheim'
p5364
sg9
S'8:00 PM ET'
p5365
sa(dp5366
g3
S'Mon Mar 24, 2014'
p5367
sg5
S'Phoenix'
p5368
sg7
S'NY Rangers'
p5369
sg9
S'7:00 PM ET'
p5370
sa(dp5371
g3
S'Mon Mar 24, 2014'
p5372
sg5
S'Los Angeles'
p5373
sg7
S'Philadelphia'
p5374
sg9
S'7:00 PM ET'
p5375
sa(dp5376
g3
S'Mon Mar 24, 2014'
p5377
sg5
S'Montr\xc3\xa9al'
p5378
sg7
S'Boston'
p5379
sg9
S'7:30 PM ET'
p5380
sa(dp5381
g3
S'Mon Mar 24, 2014'
p5382
sg5
S'Ottawa'
p5383
sg7
S'Tampa Bay'
p5384
sg9
S'7:30 PM ET'
p5385
sa(dp5386
g3
S'Mon Mar 24, 2014'
p5387
sg5
S'Winnipeg'
p5388
sg7
S'Dallas'
p5389
sg9
S'8:30 PM ET'
p5390
sa(dp5391
g3
S'Mon Mar 24, 2014'
p5392
sg5
S'San Jose'
p5393
sg7
S'Calgary'
p5394
sg9
S'9:00 PM ET'
p5395
sa(dp5396
g3
S'Tue Mar 25, 2014'
p5397
sg5
S'St. Louis'
p5398
sg7
S'Toronto'
p5399
sg9
S'7:00 PM ET'
p5400
sa(dp5401
g3
S'Tue Mar 25, 2014'
p5402
sg5
S'Phoenix'
p5403
sg7
S'Pittsburgh'
p5404
sg9
S'7:00 PM ET'
p5405
sa(dp5406
g3
S'Tue Mar 25, 2014'
p5407
sg5
S'Los Angeles'
p5408
sg7
S'Washington'
p5409
sg9
S'7:00 PM ET'
p5410
sa(dp5411
g3
S'Tue Mar 25, 2014'
p5412
sg5
S'NY Islanders'
p5413
sg7
S'Carolina'
p5414
sg9
S'7:00 PM ET'
p5415
sa(dp5416
g3
S'Tue Mar 25, 2014'
p5417
sg5
S'Buffalo'
p5418
sg7
S'Montr\xc3\xa9al'
p5419
sg9
S'7:30 PM ET'
p5420
sa(dp5421
g3
S'Tue Mar 25, 2014'
p5422
sg5
S'Ottawa'
p5423
sg7
S'Florida'
p5424
sg9
S'7:30 PM ET'
p5425
sa(dp5426
g3
S'Tue Mar 25, 2014'
p5427
sg5
S'Detroit'
p5428
sg7
S'Columbus'
p5429
sg9
S'7:30 PM ET'
p5430
sa(dp5431
g3
S'Tue Mar 25, 2014'
p5432
sg5
S'Dallas'
p5433
sg7
S'Chicago'
p5434
sg9
S'8:00 PM ET'
p5435
sa(dp5436
g3
S'Tue Mar 25, 2014'
p5437
sg5
S'Colorado'
p5438
sg7
S'Nashville'
p5439
sg9
S'8:00 PM ET'
p5440
sa(dp5441
g3
S'Tue Mar 25, 2014'
p5442
sg5
S'San Jose'
p5443
sg7
S'Edmonton'
p5444
sg9
S'9:30 PM ET'
p5445
sa(dp5446
g3
S'Wed Mar 26, 2014'
p5447
sg5
S'Vancouver'
p5448
sg7
S'Minnesota'
p5449
sg9
S'7:30 PM ET'
p5450
sa(dp5451
g3
S'Wed Mar 26, 2014'
p5452
sg5
S'Philadelphia'
p5453
sg7
S'NY Rangers'
p5454
sg9
S'8:00 PM ET'
p5455
sa(dp5456
g3
S'Wed Mar 26, 2014'
p5457
sg5
S'Anaheim'
p5458
sg7
S'Calgary'
p5459
sg9
S'10:00 PM ET'
p5460
sa(dp5461
g3
S'Thu Mar 27, 2014'
p5462
sg5
S'Chicago'
p5463
sg7
S'Boston'
p5464
sg9
S'7:00 PM ET'
p5465
sa(dp5466
g3
S'Thu Mar 27, 2014'
p5467
sg5
S'Phoenix'
p5468
sg7
S'New Jersey'
p5469
sg9
S'7:00 PM ET'
p5470
sa(dp5471
g3
S'Thu Mar 27, 2014'
p5472
sg5
S'Los Angeles'
p5473
sg7
S'Pittsburgh'
p5474
sg9
S'7:00 PM ET'
p5475
sa(dp5476
g3
S'Thu Mar 27, 2014'
p5477
sg5
S'Montr\xc3\xa9al'
p5478
sg7
S'Detroit'
p5479
sg9
S'7:00 PM ET'
p5480
sa(dp5481
g3
S'Thu Mar 27, 2014'
p5482
sg5
S'NY Islanders'
p5483
sg7
S'Tampa Bay'
p5484
sg9
S'7:30 PM ET'
p5485
sa(dp5486
g3
S'Thu Mar 27, 2014'
p5487
sg5
S'Carolina'
p5488
sg7
S'Florida'
p5489
sg9
S'7:30 PM ET'
p5490
sa(dp5491
g3
S'Thu Mar 27, 2014'
p5492
sg5
S'Minnesota'
p5493
sg7
S'St. Louis'
p5494
sg9
S'8:00 PM ET'
p5495
sa(dp5496
g3
S'Thu Mar 27, 2014'
p5497
sg5
S'Buffalo'
p5498
sg7
S'Nashville'
p5499
sg9
S'8:00 PM ET'
p5500
sa(dp5501
g3
S'Thu Mar 27, 2014'
p5502
sg5
S'Vancouver'
p5503
sg7
S'Colorado'
p5504
sg9
S'9:00 PM ET'
p5505
sa(dp5506
g3
S'Thu Mar 27, 2014'
p5507
sg5
S'Winnipeg'
p5508
sg7
S'San Jose'
p5509
sg9
S'10:30 PM ET'
p5510
sa(dp5511
g3
S'Fri Mar 28, 2014'
p5512
sg5
S'Toronto'
p5513
sg7
S'Philadelphia'
p5514
sg9
S'7:00 PM ET'
p5515
sa(dp5516
g3
S'Fri Mar 28, 2014'
p5517
sg5
S'Pittsburgh'
p5518
sg7
S'Columbus'
p5519
sg9
S'7:00 PM ET'
p5520
sa(dp5521
g3
S'Fri Mar 28, 2014'
p5522
sg5
S'Chicago'
p5523
sg7
S'Ottawa'
p5524
sg9
S'7:30 PM ET'
p5525
sa(dp5526
g3
S'Fri Mar 28, 2014'
p5527
sg5
S'Nashville'
p5528
sg7
S'Dallas'
p5529
sg9
S'8:30 PM ET'
p5530
sa(dp5531
g3
S'Fri Mar 28, 2014'
p5532
sg5
S'NY Rangers'
p5533
sg7
S'Calgary'
p5534
sg9
S'9:00 PM ET'
p5535
sa(dp5536
g3
S'Fri Mar 28, 2014'
p5537
sg5
S'Anaheim'
p5538
sg7
S'Edmonton'
p5539
sg9
S'9:30 PM ET'
p5540
sa(dp5541
g3
S'Sat Mar 29, 2014'
p5542
sg5
S'Boston'
p5543
sg7
S'Washington'
p5544
sg9
S'12:30 PM ET'
p5545
sa(dp5546
g3
S'Sat Mar 29, 2014'
p5547
sg5
S'San Jose'
p5548
sg7
S'Colorado'
p5549
sg9
S'3:00 PM ET'
p5550
sa(dp5551
g3
S'Sat Mar 29, 2014'
p5552
sg5
S'Tampa Bay'
p5553
sg7
S'Buffalo'
p5554
sg9
S'7:00 PM ET'
p5555
sa(dp5556
g3
S'Sat Mar 29, 2014'
p5557
sg5
S'Detroit'
p5558
sg7
S'Toronto'
p5559
sg9
S'7:00 PM ET'
p5560
sa(dp5561
g3
S'Sat Mar 29, 2014'
p5562
sg5
S'Montr\xc3\xa9al'
p5563
sg7
S'Florida'
p5564
sg9
S'7:00 PM ET'
p5565
sa(dp5566
g3
S'Sat Mar 29, 2014'
p5567
sg5
S'New Jersey'
p5568
sg7
S'NY Islanders'
p5569
sg9
S'7:00 PM ET'
p5570
sa(dp5571
g3
S'Sat Mar 29, 2014'
p5572
sg5
S'Columbus'
p5573
sg7
S'Carolina'
p5574
sg9
S'7:00 PM ET'
p5575
sa(dp5576
g3
S'Sat Mar 29, 2014'
p5577
sg5
S'Dallas'
p5578
sg7
S'St. Louis'
p5579
sg9
S'8:00 PM ET'
p5580
sa(dp5581
g3
S'Sat Mar 29, 2014'
p5582
sg5
S'Minnesota'
p5583
sg7
S'Phoenix'
p5584
sg9
S'9:00 PM ET'
p5585
sa(dp5586
g3
S'Sat Mar 29, 2014'
p5587
sg5
S'Anaheim'
p5588
sg7
S'Vancouver'
p5589
sg9
S'10:00 PM ET'
p5590
sa(dp5591
g3
S'Sat Mar 29, 2014'
p5592
sg5
S'Winnipeg'
p5593
sg7
S'Los Angeles'
p5594
sg9
S'10:00 PM ET'
p5595
sa(dp5596
g3
S'Sun Mar 30, 2014'
p5597
sg5
S'Calgary'
p5598
sg7
S'Ottawa'
p5599
sg9
S'5:00 PM ET'
p5600
sa(dp5601
g3
S'Sun Mar 30, 2014'
p5602
sg5
S'Tampa Bay'
p5603
sg7
S'Detroit'
p5604
sg9
S'5:00 PM ET'
p5605
sa(dp5606
g3
S'Sun Mar 30, 2014'
p5607
sg5
S'Boston'
p5608
sg7
S'Philadelphia'
p5609
sg9
S'7:30 PM ET'
p5610
sa(dp5611
g3
S'Sun Mar 30, 2014'
p5612
sg5
S'Chicago'
p5613
sg7
S'Pittsburgh'
p5614
sg9
S'7:30 PM ET'
p5615
sa(dp5616
g3
S'Sun Mar 30, 2014'
p5617
sg5
S'Washington'
p5618
sg7
S'Nashville'
p5619
sg9
S'8:00 PM ET'
p5620
sa(dp5621
g3
S'Sun Mar 30, 2014'
p5622
sg5
S'NY Rangers'
p5623
sg7
S'Edmonton'
p5624
sg9
S'8:00 PM ET'
p5625
sa(dp5626
g3
S'Mon Mar 31, 2014'
p5627
sg5
S'Carolina'
p5628
sg7
S'Ottawa'
p5629
sg9
S'7:30 PM ET'
p5630
sa(dp5631
g3
S'Mon Mar 31, 2014'
p5632
sg5
S'Florida'
p5633
sg7
S'New Jersey'
p5634
sg9
S'7:30 PM ET'
p5635
sa(dp5636
g3
S'Mon Mar 31, 2014'
p5637
sg5
S'Winnipeg'
p5638
sg7
S'Anaheim'
p5639
sg9
S'10:00 PM ET'
p5640
sa(dp5641
g3
S'Mon Mar 31, 2014'
p5642
sg5
S'Minnesota'
p5643
sg7
S'Los Angeles'
p5644
sg9
S'10:00 PM ET'
p5645
sa(dp5646
g3
S'Tue Apr 1, 2014'
p5647
sg5
S'New Jersey'
p5648
sg7
S'Buffalo'
p5649
sg9
S'7:00 PM ET'
p5650
sa(dp5651
g3
S'Tue Apr 1, 2014'
p5652
sg5
S'Calgary'
p5653
sg7
S'Toronto'
p5654
sg9
S'7:00 PM ET'
p5655
sa(dp5656
g3
S'Tue Apr 1, 2014'
p5657
sg5
S'Florida'
p5658
sg7
S'NY Islanders'
p5659
sg9
S'7:00 PM ET'
p5660
sa(dp5661
g3
S'Tue Apr 1, 2014'
p5662
sg5
S'Carolina'
p5663
sg7
S'Pittsburgh'
p5664
sg9
S'7:00 PM ET'
p5665
sa(dp5666
g3
S'Tue Apr 1, 2014'
p5667
sg5
S'Dallas'
p5668
sg7
S'Washington'
p5669
sg9
S'7:00 PM ET'
p5670
sa(dp5671
g3
S'Tue Apr 1, 2014'
p5672
sg5
S'Colorado'
p5673
sg7
S'Columbus'
p5674
sg9
S'7:00 PM ET'
p5675
sa(dp5676
g3
S'Tue Apr 1, 2014'
p5677
sg5
S'Montr\xc3\xa9al'
p5678
sg7
S'Tampa Bay'
p5679
sg9
S'7:30 PM ET'
p5680
sa(dp5681
g3
S'Tue Apr 1, 2014'
p5682
sg5
S'Philadelphia'
p5683
sg7
S'St. Louis'
p5684
sg9
S'8:00 PM ET'
p5685
sa(dp5686
g3
S'Tue Apr 1, 2014'
p5687
sg5
S'NY Rangers'
p5688
sg7
S'Vancouver'
p5689
sg9
S'10:00 PM ET'
p5690
sa(dp5691
g3
S'Tue Apr 1, 2014'
p5692
sg5
S'Winnipeg'
p5693
sg7
S'Phoenix'
p5694
sg9
S'10:00 PM ET'
p5695
sa(dp5696
g3
S'Tue Apr 1, 2014'
p5697
sg5
S'Edmonton'
p5698
sg7
S'San Jose'
p5699
sg9
S'10:30 PM ET'
p5700
sa(dp5701
g3
S'Wed Apr 2, 2014'
p5702
sg5
S'NY Islanders'
p5703
sg7
S'Ottawa'
p5704
sg9
S'7:00 PM ET'
p5705
sa(dp5706
g3
S'Wed Apr 2, 2014'
p5707
sg5
S'Boston'
p5708
sg7
S'Detroit'
p5709
sg9
S'8:00 PM ET'
p5710
sa(dp5711
g3
S'Wed Apr 2, 2014'
p5712
sg5
S'Edmonton'
p5713
sg7
S'Anaheim'
p5714
sg9
S'10:00 PM ET'
p5715
sa(dp5716
g3
S'Wed Apr 2, 2014'
p5717
sg5
S'Phoenix'
p5718
sg7
S'Los Angeles'
p5719
sg9
S'10:30 PM ET'
p5720
sa(dp5721
g3
S'Thu Apr 3, 2014'
p5722
sg5
S'Columbus'
p5723
sg7
S'Philadelphia'
p5724
sg9
S'7:00 PM ET'
p5725
sa(dp5726
g3
S'Thu Apr 3, 2014'
p5727
sg5
S'Dallas'
p5728
sg7
S'Carolina'
p5729
sg9
S'7:00 PM ET'
p5730
sa(dp5731
g3
S'Thu Apr 3, 2014'
p5732
sg5
S'Boston'
p5733
sg7
S'Toronto'
p5734
sg9
S'7:30 PM ET'
p5735
sa(dp5736
g3
S'Thu Apr 3, 2014'
p5737
sg5
S'Calgary'
p5738
sg7
S'Tampa Bay'
p5739
sg9
S'7:30 PM ET'
p5740
sa(dp5741
g3
S'Thu Apr 3, 2014'
p5742
sg5
S'Minnesota'
p5743
sg7
S'Chicago'
p5744
sg9
S'8:00 PM ET'
p5745
sa(dp5746
g3
S'Thu Apr 3, 2014'
p5747
sg5
S'Buffalo'
p5748
sg7
S'St. Louis'
p5749
sg9
S'8:00 PM ET'
p5750
sa(dp5751
g3
S'Thu Apr 3, 2014'
p5752
sg5
S'Pittsburgh'
p5753
sg7
S'Winnipeg'
p5754
sg9
S'8:00 PM ET'
p5755
sa(dp5756
g3
S'Thu Apr 3, 2014'
p5757
sg5
S'NY Rangers'
p5758
sg7
S'Colorado'
p5759
sg9
S'9:00 PM ET'
p5760
sa(dp5761
g3
S'Thu Apr 3, 2014'
p5762
sg5
S'Los Angeles'
p5763
sg7
S'San Jose'
p5764
sg9
S'10:30 PM ET'
p5765
sa(dp5766
g3
S'Fri Apr 4, 2014'
p5767
sg5
S'Montr\xc3\xa9al'
p5768
sg7
S'Ottawa'
p5769
sg9
S'7:00 PM ET'
p5770
sa(dp5771
g3
S'Fri Apr 4, 2014'
p5772
sg5
S'Chicago'
p5773
sg7
S'Columbus'
p5774
sg9
S'7:00 PM ET'
p5775
sa(dp5776
g3
S'Fri Apr 4, 2014'
p5777
sg5
S'Washington'
p5778
sg7
S'New Jersey'
p5779
sg9
S'7:00 PM ET'
p5780
sa(dp5781
g3
S'Fri Apr 4, 2014'
p5782
sg5
S'Buffalo'
p5783
sg7
S'Detroit'
p5784
sg9
S'7:30 PM ET'
p5785
sa(dp5786
g3
S'Fri Apr 4, 2014'
p5787
sg5
S'Calgary'
p5788
sg7
S'Florida'
p5789
sg9
S'7:30 PM ET'
p5790
sa(dp5791
g3
S'Fri Apr 4, 2014'
p5792
sg5
S'Edmonton'
p5793
sg7
S'Phoenix'
p5794
sg9
S'10:00 PM ET'
p5795
sa(dp5796
g3
S'Fri Apr 4, 2014'
p5797
sg5
S'Nashville'
p5798
sg7
S'Anaheim'
p5799
sg9
S'10:00 PM ET'
p5800
sa(dp5801
g3
S'Sat Apr 5, 2014'
p5802
sg5
S'Philadelphia'
p5803
sg7
S'Boston'
p5804
sg9
S'1:00 PM ET'
p5805
sa(dp5806
g3
S'Sat Apr 5, 2014'
p5807
sg5
S'Colorado'
p5808
sg7
S'St. Louis'
p5809
sg9
S'2:00 PM ET'
p5810
sa(dp5811
g3
S'Sat Apr 5, 2014'
p5812
sg5
S'Washington'
p5813
sg7
S'NY Islanders'
p5814
sg9
S'5:00 PM ET'
p5815
sa(dp5816
g3
S'Sat Apr 5, 2014'
p5817
sg5
S'Winnipeg'
p5818
sg7
S'Toronto'
p5819
sg9
S'7:00 PM ET'
p5820
sa(dp5821
g3
S'Sat Apr 5, 2014'
p5822
sg5
S'Detroit'
p5823
sg7
S'Montr\xc3\xa9al'
p5824
sg9
S'7:00 PM ET'
p5825
sa(dp5826
g3
S'Sat Apr 5, 2014'
p5827
sg5
S'Dallas'
p5828
sg7
S'Tampa Bay'
p5829
sg9
S'7:00 PM ET'
p5830
sa(dp5831
g3
S'Sat Apr 5, 2014'
p5832
sg5
S'Ottawa'
p5833
sg7
S'NY Rangers'
p5834
sg9
S'7:00 PM ET'
p5835
sa(dp5836
g3
S'Sat Apr 5, 2014'
p5837
sg5
S'New Jersey'
p5838
sg7
S'Carolina'
p5839
sg9
S'7:00 PM ET'
p5840
sa(dp5841
g3
S'Sat Apr 5, 2014'
p5842
sg5
S'Pittsburgh'
p5843
sg7
S'Minnesota'
p5844
sg9
S'8:00 PM ET'
p5845
sa(dp5846
g3
S'Sat Apr 5, 2014'
p5847
sg5
S'Los Angeles'
p5848
sg7
S'Vancouver'
p5849
sg9
S'10:00 PM ET'
p5850
sa(dp5851
g3
S'Sat Apr 5, 2014'
p5852
sg5
S'Nashville'
p5853
sg7
S'San Jose'
p5854
sg9
S'10:30 PM ET'
p5855
sa(dp5856
g3
S'Sun Apr 6, 2014'
p5857
sg5
S'Dallas'
p5858
sg7
S'Florida'
p5859
sg9
S'5:00 PM ET'
p5860
sa(dp5861
g3
S'Sun Apr 6, 2014'
p5862
sg5
S'NY Islanders'
p5863
sg7
S'Columbus'
p5864
sg9
S'6:00 PM ET'
p5865
sa(dp5866
g3
S'Sun Apr 6, 2014'
p5867
sg5
S'Buffalo'
p5868
sg7
S'Philadelphia'
p5869
sg9
S'7:30 PM ET'
p5870
sa(dp5871
g3
S'Sun Apr 6, 2014'
p5872
sg5
S'St. Louis'
p5873
sg7
S'Chicago'
p5874
sg9
S'7:30 PM ET'
p5875
sa(dp5876
g3
S'Sun Apr 6, 2014'
p5877
sg5
S'Pittsburgh'
p5878
sg7
S'Colorado'
p5879
sg9
S'8:00 PM ET'
p5880
sa(dp5881
g3
S'Sun Apr 6, 2014'
p5882
sg5
S'Anaheim'
p5883
sg7
S'Edmonton'
p5884
sg9
S'8:00 PM ET'
p5885
sa(dp5886
g3
S'Mon Apr 7, 2014'
p5887
sg5
S'Calgary'
p5888
sg7
S'New Jersey'
p5889
sg9
S'7:00 PM ET'
p5890
sa(dp5891
g3
S'Mon Apr 7, 2014'
p5892
sg5
S'Minnesota'
p5893
sg7
S'Winnipeg'
p5894
sg9
S'8:00 PM ET'
p5895
sa(dp5896
g3
S'Mon Apr 7, 2014'
p5897
sg5
S'Anaheim'
p5898
sg7
S'Vancouver'
p5899
sg9
S'10:00 PM ET'
p5900
sa(dp5901
g3
S'Tue Apr 8, 2014'
p5902
sg5
S'Detroit'
p5903
sg7
S'Buffalo'
p5904
sg9
S'7:00 PM ET'
p5905
sa(dp5906
g3
S'Tue Apr 8, 2014'
p5907
sg5
S'Ottawa'
p5908
sg7
S'NY Islanders'
p5909
sg9
S'7:00 PM ET'
p5910
sa(dp5911
g3
S'Tue Apr 8, 2014'
p5912
sg5
S'Carolina'
p5913
sg7
S'NY Rangers'
p5914
sg9
S'7:00 PM ET'
p5915
sa(dp5916
g3
S'Tue Apr 8, 2014'
p5917
sg5
S'Phoenix'
p5918
sg7
S'Columbus'
p5919
sg9
S'7:00 PM ET'
p5920
sa(dp5921
g3
S'Tue Apr 8, 2014'
p5922
sg5
S'Toronto'
p5923
sg7
S'Tampa Bay'
p5924
sg9
S'7:30 PM ET'
p5925
sa(dp5926
g3
S'Tue Apr 8, 2014'
p5927
sg5
S'Philadelphia'
p5928
sg7
S'Florida'
p5929
sg9
S'7:30 PM ET'
p5930
sa(dp5931
g3
S'Tue Apr 8, 2014'
p5932
sg5
S'Washington'
p5933
sg7
S'St. Louis'
p5934
sg9
S'8:00 PM ET'
p5935
sa(dp5936
g3
S'Tue Apr 8, 2014'
p5937
sg5
S'Boston'
p5938
sg7
S'Minnesota'
p5939
sg9
S'8:00 PM ET'
p5940
sa(dp5941
g3
S'Tue Apr 8, 2014'
p5942
sg5
S'Nashville'
p5943
sg7
S'Dallas'
p5944
sg9
S'8:30 PM ET'
p5945
sa(dp5946
g3
S'Tue Apr 8, 2014'
p5947
sg5
S'Colorado'
p5948
sg7
S'Edmonton'
p5949
sg9
S'9:30 PM ET'
p5950
sa(dp5951
g3
S'Wed Apr 9, 2014'
p5952
sg5
S'Montr\xc3\xa9al'
p5953
sg7
S'Chicago'
p5954
sg9
S'7:30 PM ET'
p5955
sa(dp5956
g3
S'Wed Apr 9, 2014'
p5957
sg5
S'Detroit'
p5958
sg7
S'Pittsburgh'
p5959
sg9
S'8:00 PM ET'
p5960
sa(dp5961
g3
S'Wed Apr 9, 2014'
p5962
sg5
S'Los Angeles'
p5963
sg7
S'Calgary'
p5964
sg9
S'10:00 PM ET'
p5965
sa(dp5966
g3
S'Wed Apr 9, 2014'
p5967
sg5
S'San Jose'
p5968
sg7
S'Anaheim'
p5969
sg9
S'10:30 PM ET'
p5970
sa(dp5971
g3
S'Thu Apr 10, 2014'
p5972
sg5
S'Buffalo'
p5973
sg7
S'NY Rangers'
p5974
sg9
S'7:00 PM ET'
p5975
sa(dp5976
g3
S'Thu Apr 10, 2014'
p5977
sg5
S'Washington'
p5978
sg7
S'Carolina'
p5979
sg9
S'7:00 PM ET'
p5980
sa(dp5981
g3
S'Thu Apr 10, 2014'
p5982
sg5
S'NY Islanders'
p5983
sg7
S'Montr\xc3\xa9al'
p5984
sg9
S'7:30 PM ET'
p5985
sa(dp5986
g3
S'Thu Apr 10, 2014'
p5987
sg5
S'New Jersey'
p5988
sg7
S'Ottawa'
p5989
sg9
S'7:30 PM ET'
p5990
sa(dp5991
g3
S'Thu Apr 10, 2014'
p5992
sg5
S'Philadelphia'
p5993
sg7
S'Tampa Bay'
p5994
sg9
S'7:30 PM ET'
p5995
sa(dp5996
g3
S'Thu Apr 10, 2014'
p5997
sg5
S'Toronto'
p5998
sg7
S'Florida'
p5999
sg9
S'7:30 PM ET'
p6000
sa(dp6001
g3
S'Thu Apr 10, 2014'
p6002
sg5
S'Phoenix'
p6003
sg7
S'Nashville'
p6004
sg9
S'8:00 PM ET'
p6005
sa(dp6006
g3
S'Thu Apr 10, 2014'
p6007
sg5
S'St. Louis'
p6008
sg7
S'Minnesota'
p6009
sg9
S'8:00 PM ET'
p6010
sa(dp6011
g3
S'Thu Apr 10, 2014'
p6012
sg5
S'Boston'
p6013
sg7
S'Winnipeg'
p6014
sg9
S'8:00 PM ET'
p6015
sa(dp6016
g3
S'Thu Apr 10, 2014'
p6017
sg5
S'Los Angeles'
p6018
sg7
S'Edmonton'
p6019
sg9
S'9:30 PM ET'
p6020
sa(dp6021
g3
S'Thu Apr 10, 2014'
p6022
sg5
S'Colorado'
p6023
sg7
S'Vancouver'
p6024
sg9
S'10:00 PM ET'
p6025
sa(dp6026
g3
S'Fri Apr 11, 2014'
p6027
sg5
S'Chicago'
p6028
sg7
S'Washington'
p6029
sg9
S'7:00 PM ET'
p6030
sa(dp6031
g3
S'Fri Apr 11, 2014'
p6032
sg5
S'Carolina'
p6033
sg7
S'Detroit'
p6034
sg9
S'7:30 PM ET'
p6035
sa(dp6036
g3
S'Fri Apr 11, 2014'
p6037
sg5
S'Columbus'
p6038
sg7
S'Tampa Bay'
p6039
sg9
S'7:30 PM ET'
p6040
sa(dp6041
g3
S'Fri Apr 11, 2014'
p6042
sg5
S'NY Islanders'
p6043
sg7
S'New Jersey'
p6044
sg9
S'7:30 PM ET'
p6045
sa(dp6046
g3
S'Fri Apr 11, 2014'
p6047
sg5
S'St. Louis'
p6048
sg7
S'Dallas'
p6049
sg9
S'8:30 PM ET'
p6050
sa(dp6051
g3
S'Fri Apr 11, 2014'
p6052
sg5
S'Winnipeg'
p6053
sg7
S'Calgary'
p6054
sg9
S'9:00 PM ET'
p6055
sa(dp6056
g3
S'Fri Apr 11, 2014'
p6057
sg5
S'Colorado'
p6058
sg7
S'San Jose'
p6059
sg9
S'10:00 PM ET'
p6060
sa(dp6061
g3
S'Sat Apr 12, 2014'
p6062
sg5
S'Buffalo'
p6063
sg7
S'Boston'
p6064
sg9
S'12:30 PM ET'
p6065
sa(dp6066
g3
S'Sat Apr 12, 2014'
p6067
sg5
S'Philadelphia'
p6068
sg7
S'Pittsburgh'
p6069
sg9
S'3:00 PM ET'
p6070
sa(dp6071
g3
S'Sat Apr 12, 2014'
p6072
sg5
S'NY Rangers'
p6073
sg7
S'Montr\xc3\xa9al'
p6074
sg9
S'7:00 PM ET'
p6075
sa(dp6076
g3
S'Sat Apr 12, 2014'
p6077
sg5
S'Toronto'
p6078
sg7
S'Ottawa'
p6079
sg9
S'7:00 PM ET'
p6080
sa(dp6081
g3
S'Sat Apr 12, 2014'
p6082
sg5
S'Columbus'
p6083
sg7
S'Florida'
p6084
sg9
S'7:00 PM ET'
p6085
sa(dp6086
g3
S'Sat Apr 12, 2014'
p6087
sg5
S'Chicago'
p6088
sg7
S'Nashville'
p6089
sg9
S'8:00 PM ET'
p6090
sa(dp6091
g3
S'Sat Apr 12, 2014'
p6092
sg5
S'San Jose'
p6093
sg7
S'Phoenix'
p6094
sg9
S'9:00 PM ET'
p6095
sa(dp6096
g3
S'Sat Apr 12, 2014'
p6097
sg5
S'Vancouver'
p6098
sg7
S'Edmonton'
p6099
sg9
S'10:00 PM ET'
p6100
sa(dp6101
g3
S'Sat Apr 12, 2014'
p6102
sg5
S'Anaheim'
p6103
sg7
S'Los Angeles'
p6104
sg9
S'10:30 PM ET'
p6105
sa(dp6106
g3
S'Sun Apr 13, 2014'
p6107
sg5
S'Boston'
p6108
sg7
S'New Jersey'
p6109
sg9
S'3:00 PM ET'
p6110
sa(dp6111
g3
S'Sun Apr 13, 2014'
p6112
sg5
S'Carolina'
p6113
sg7
S'Philadelphia'
p6114
sg9
S'3:00 PM ET'
p6115
sa(dp6116
g3
S'Sun Apr 13, 2014'
p6117
sg5
S'Tampa Bay'
p6118
sg7
S'Washington'
p6119
sg9
S'3:00 PM ET'
p6120
sa(dp6121
g3
S'Sun Apr 13, 2014'
p6122
sg5
S'Detroit'
p6123
sg7
S'St. Louis'
p6124
sg9
S'3:00 PM ET'
p6125
sa(dp6126
g3
S'Sun Apr 13, 2014'
p6127
sg5
S'NY Islanders'
p6128
sg7
S'Buffalo'
p6129
sg9
S'5:00 PM ET'
p6130
sa(dp6131
g3
S'Sun Apr 13, 2014'
p6132
sg5
S'Ottawa'
p6133
sg7
S'Pittsburgh'
p6134
sg9
S'7:30 PM ET'
p6135
sa(dp6136
g3
S'Sun Apr 13, 2014'
p6137
sg5
S'Nashville'
p6138
sg7
S'Minnesota'
p6139
sg9
S'8:00 PM ET'
p6140
sa(dp6141
g3
S'Sun Apr 13, 2014'
p6142
sg5
S'Calgary'
p6143
sg7
S'Vancouver'
p6144
sg9
S'8:00 PM ET'
p6145
sa(dp6146
g3
S'Sun Apr 13, 2014'
p6147
sg5
S'Colorado'
p6148
sg7
S'Anaheim'
p6149
sg9
S'8:00 PM ET'
p6150
sa(dp6151
g3
S'Sun Apr 13, 2014'
p6152
sg5
S'Dallas'
p6153
sg7
S'Phoenix'
p6154
sg9
S'9:00 PM ET'
p6155
sa.